
wave_gen.elf:     file format elf32-littlenios2
wave_gen.elf
architecture: nios2:r1, flags 0x00000112:
EXEC_P, HAS_SYMS, D_PAGED
start address 0x01040244

Program Header:
    LOAD off    0x00001000 vaddr 0x01040000 paddr 0x01040000 align 2**12
         filesz 0x00000020 memsz 0x00000020 flags r-x
    LOAD off    0x00001020 vaddr 0x01040020 paddr 0x01040020 align 2**12
         filesz 0x00016d18 memsz 0x00016d18 flags r-x
    LOAD off    0x00017d38 vaddr 0x01056d38 paddr 0x01058824 align 2**12
         filesz 0x00001aec memsz 0x00001aec flags rw-
    LOAD off    0x0001a310 vaddr 0x0105a310 paddr 0x0105a310 align 2**12
         filesz 0x00000000 memsz 0x00000188 flags rw-

Sections:
Idx Name          Size      VMA       LMA       File off  Algn
  0 .entry        00000020  01040000  01040000  00001000  2**5
                  CONTENTS, ALLOC, LOAD, READONLY, CODE
  1 .exceptions   00000224  01040020  01040020  00001020  2**2
                  CONTENTS, ALLOC, LOAD, READONLY, CODE
  2 .text         0001646c  01040244  01040244  00001244  2**2
                  CONTENTS, ALLOC, LOAD, READONLY, CODE
  3 .rodata       00000688  010566b0  010566b0  000176b0  2**2
                  CONTENTS, ALLOC, LOAD, READONLY, DATA
  4 .rwdata       00001aec  01056d38  01058824  00017d38  2**2
                  CONTENTS, ALLOC, LOAD, DATA, SMALL_DATA
  5 .bss          00000188  0105a310  0105a310  0001a310  2**2
                  ALLOC, SMALL_DATA
  6 .onchip_memory2 00000000  0105a498  0105a498  00019824  2**0
                  CONTENTS
  7 .data_buffer  00000000  01080000  01080000  00019824  2**0
                  CONTENTS
  8 .comment      00000023  00000000  00000000  00019824  2**0
                  CONTENTS, READONLY
  9 .debug_aranges 00001110  00000000  00000000  00019848  2**3
                  CONTENTS, READONLY, DEBUGGING
 10 .debug_info   00028ece  00000000  00000000  0001a958  2**0
                  CONTENTS, READONLY, DEBUGGING
 11 .debug_abbrev 0000a72f  00000000  00000000  00043826  2**0
                  CONTENTS, READONLY, DEBUGGING
 12 .debug_line   0000e4cd  00000000  00000000  0004df55  2**0
                  CONTENTS, READONLY, DEBUGGING
 13 .debug_frame  00002a28  00000000  00000000  0005c424  2**2
                  CONTENTS, READONLY, DEBUGGING
 14 .debug_str    00004103  00000000  00000000  0005ee4c  2**0
                  CONTENTS, READONLY, DEBUGGING
 15 .debug_loc    0001e6eb  00000000  00000000  00062f4f  2**0
                  CONTENTS, READONLY, DEBUGGING
 16 .debug_alt_sim_info 00000060  00000000  00000000  0008163c  2**2
                  CONTENTS, READONLY, DEBUGGING
 17 .debug_ranges 00001b50  00000000  00000000  000816a0  2**3
                  CONTENTS, READONLY, DEBUGGING
 18 .thread_model 00000003  00000000  00000000  00086c1a  2**0
                  CONTENTS, READONLY
 19 .cpu          0000000a  00000000  00000000  00086c1d  2**0
                  CONTENTS, READONLY
 20 .qsys         00000001  00000000  00000000  00086c27  2**0
                  CONTENTS, READONLY
 21 .simulation_enabled 00000001  00000000  00000000  00086c28  2**0
                  CONTENTS, READONLY
 22 .sysid_hash   00000004  00000000  00000000  00086c29  2**0
                  CONTENTS, READONLY
 23 .sysid_base   00000004  00000000  00000000  00086c2d  2**0
                  CONTENTS, READONLY
 24 .sysid_time   00000004  00000000  00000000  00086c31  2**0
                  CONTENTS, READONLY
 25 .stderr_dev   00000009  00000000  00000000  00086c35  2**0
                  CONTENTS, READONLY
 26 .stdin_dev    00000009  00000000  00000000  00086c3e  2**0
                  CONTENTS, READONLY
 27 .stdout_dev   00000009  00000000  00000000  00086c47  2**0
                  CONTENTS, READONLY
 28 .sopc_system_name 00000009  00000000  00000000  00086c50  2**0
                  CONTENTS, READONLY
 29 .quartus_project_dir 0000000f  00000000  00000000  00086c59  2**0
                  CONTENTS, READONLY
 30 .jdi          0000465e  00000000  00000000  00086c68  2**0
                  CONTENTS, READONLY
 31 .sopcinfo     00093c57  00000000  00000000  0008b2c6  2**0
                  CONTENTS, READONLY
SYMBOL TABLE:
01040000 l    d  .entry	00000000 .entry
01040020 l    d  .exceptions	00000000 .exceptions
01040244 l    d  .text	00000000 .text
010566b0 l    d  .rodata	00000000 .rodata
01056d38 l    d  .rwdata	00000000 .rwdata
0105a310 l    d  .bss	00000000 .bss
0105a498 l    d  .onchip_memory2	00000000 .onchip_memory2
01080000 l    d  .data_buffer	00000000 .data_buffer
00000000 l    d  .comment	00000000 .comment
00000000 l    d  .debug_aranges	00000000 .debug_aranges
00000000 l    d  .debug_info	00000000 .debug_info
00000000 l    d  .debug_abbrev	00000000 .debug_abbrev
00000000 l    d  .debug_line	00000000 .debug_line
00000000 l    d  .debug_frame	00000000 .debug_frame
00000000 l    d  .debug_str	00000000 .debug_str
00000000 l    d  .debug_loc	00000000 .debug_loc
00000000 l    d  .debug_alt_sim_info	00000000 .debug_alt_sim_info
00000000 l    d  .debug_ranges	00000000 .debug_ranges
00000000 l    df *ABS*	00000000 ../wave_gen_bsp//obj/HAL/src/crt0.o
0104028c l       .text	00000000 alt_after_alt_main
00000000 l    df *ABS*	00000000 alt_irq_handler.c
00000000 l    df *ABS*	00000000 alt_instruction_exception_entry.c
00000000 l    df *ABS*	00000000 audio.c
0105a348 l     O .bss	00000028 reg_file
00000000 l    df *ABS*	00000000 debug.c
00000000 l    df *ABS*	00000000 i2c.c
00000000 l    df *ABS*	00000000 main.c
00000000 l    df *ABS*	00000000 s_sin.c
00000000 l    df *ABS*	00000000 e_rem_pio2.c
010568a8 l     O .rodata	00000108 two_over_pi
01056828 l     O .rodata	00000080 npio2_hw
00000000 l    df *ABS*	00000000 k_cos.c
00000000 l    df *ABS*	00000000 k_rem_pio2.c
010569f0 l     O .rodata	00000010 init_jk
010569b0 l     O .rodata	00000040 PIo2
00000000 l    df *ABS*	00000000 k_sin.c
00000000 l    df *ABS*	00000000 s_fabs.c
00000000 l    df *ABS*	00000000 s_floor.c
00000000 l    df *ABS*	00000000 s_scalbn.c
00000000 l    df *ABS*	00000000 s_copysign.c
00000000 l    df *ABS*	00000000 lib2-divmod.c
00000000 l    df *ABS*	00000000 adddf3.c
00000000 l    df *ABS*	00000000 eqdf2.c
00000000 l    df *ABS*	00000000 gedf2.c
00000000 l    df *ABS*	00000000 muldf3.c
00000000 l    df *ABS*	00000000 subdf3.c
00000000 l    df *ABS*	00000000 fixdfsi.c
00000000 l    df *ABS*	00000000 floatsidf.c
00000000 l    df *ABS*	00000000 libgcc2.c
00000000 l    df *ABS*	00000000 libgcc2.c
00000000 l    df *ABS*	00000000 printf.c
00000000 l    df *ABS*	00000000 puts.c
00000000 l    df *ABS*	00000000 sprintf.c
00000000 l    df *ABS*	00000000 strlen.c
00000000 l    df *ABS*	00000000 vfprintf.c
01056b46 l     O .rodata	00000010 zeroes.4389
01056b56 l     O .rodata	00000010 blanks.4388
00000000 l    df *ABS*	00000000 vfprintf.c
01056b66 l     O .rodata	00000010 zeroes.4404
0104a0dc l     F .text	000000bc __sbprintf
01056b76 l     O .rodata	00000010 blanks.4403
00000000 l    df *ABS*	00000000 vsnprintf.c
00000000 l    df *ABS*	00000000 wsetup.c
00000000 l    df *ABS*	00000000 dtoa.c
0104a410 l     F .text	00000200 quorem
00000000 l    df *ABS*	00000000 fflush.c
00000000 l    df *ABS*	00000000 findfp.c
0104bf40 l     F .text	00000008 __fp_unlock
0104bf54 l     F .text	0000019c __sinit.part.1
0104c0f0 l     F .text	00000008 __fp_lock
00000000 l    df *ABS*	00000000 mallocr.c
00000000 l    df *ABS*	00000000 fvwrite.c
00000000 l    df *ABS*	00000000 fwalk.c
00000000 l    df *ABS*	00000000 impure.c
01056d38 l     O .rwdata	00000424 impure_data
00000000 l    df *ABS*	00000000 locale.c
0105717c l     O .rwdata	00000020 lc_ctype_charset
0105715c l     O .rwdata	00000020 lc_message_charset
0105719c l     O .rwdata	00000038 lconv
00000000 l    df *ABS*	00000000 makebuf.c
00000000 l    df *ABS*	00000000 mallocr.c
00000000 l    df *ABS*	00000000 memchr.c
00000000 l    df *ABS*	00000000 memcpy.c
00000000 l    df *ABS*	00000000 memmove.c
00000000 l    df *ABS*	00000000 memset.c
00000000 l    df *ABS*	00000000 mprec.c
01056ba8 l     O .rodata	0000000c p05.2768
00000000 l    df *ABS*	00000000 mallocr.c
00000000 l    df *ABS*	00000000 s_fpclassify.c
00000000 l    df *ABS*	00000000 sbrkr.c
00000000 l    df *ABS*	00000000 stdio.c
00000000 l    df *ABS*	00000000 strcmp.c
00000000 l    df *ABS*	00000000 vfprintf.c
01056cdc l     O .rodata	00000010 blanks.4332
01056ccc l     O .rodata	00000010 zeroes.4333
00000000 l    df *ABS*	00000000 vfprintf.c
010508f8 l     F .text	000000fc __sprint_r.part.0
01056cfc l     O .rodata	00000010 blanks.4348
01056cec l     O .rodata	00000010 zeroes.4349
01051e84 l     F .text	000000bc __sbprintf
00000000 l    df *ABS*	00000000 writer.c
00000000 l    df *ABS*	00000000 closer.c
00000000 l    df *ABS*	00000000 mallocr.c
00000000 l    df *ABS*	00000000 fclose.c
00000000 l    df *ABS*	00000000 fputwc.c
00000000 l    df *ABS*	00000000 fstatr.c
00000000 l    df *ABS*	00000000 int_errno.c
00000000 l    df *ABS*	00000000 isattyr.c
00000000 l    df *ABS*	00000000 lseekr.c
00000000 l    df *ABS*	00000000 readr.c
00000000 l    df *ABS*	00000000 wbuf.c
00000000 l    df *ABS*	00000000 wcrtomb.c
00000000 l    df *ABS*	00000000 wctomb_r.c
00000000 l    df *ABS*	00000000 libgcc2.c
00000000 l    df *ABS*	00000000 libgcc2.c
00000000 l    df *ABS*	00000000 divdf3.c
00000000 l    df *ABS*	00000000 ledf2.c
00000000 l    df *ABS*	00000000 floatunsidf.c
00000000 l    df *ABS*	00000000 alt_close.c
01053da8 l     F .text	0000003c alt_get_errno
00000000 l    df *ABS*	00000000 alt_dev.c
01053eb4 l     F .text	0000002c alt_dev_null_write
00000000 l    df *ABS*	00000000 alt_errno.c
00000000 l    df *ABS*	00000000 alt_fstat.c
01053ee0 l     F .text	0000003c alt_get_errno
00000000 l    df *ABS*	00000000 alt_isatty.c
01053fcc l     F .text	0000003c alt_get_errno
00000000 l    df *ABS*	00000000 alt_load.c
010540ac l     F .text	00000068 alt_load_section
00000000 l    df *ABS*	00000000 alt_lseek.c
01054198 l     F .text	0000003c alt_get_errno
00000000 l    df *ABS*	00000000 alt_main.c
00000000 l    df *ABS*	00000000 alt_malloc_lock.c
00000000 l    df *ABS*	00000000 alt_read.c
0105436c l     F .text	0000003c alt_get_errno
00000000 l    df *ABS*	00000000 alt_release_fd.c
00000000 l    df *ABS*	00000000 alt_sbrk.c
01058814 l     O .rwdata	00000004 heap_end
00000000 l    df *ABS*	00000000 alt_usleep.c
00000000 l    df *ABS*	00000000 alt_write.c
010545e8 l     F .text	0000003c alt_get_errno
00000000 l    df *ABS*	00000000 alt_sys_init.c
0105471c l     F .text	00000034 alt_dev_reg
01057784 l     O .rwdata	00001060 jtag_uart
00000000 l    df *ABS*	00000000 altera_avalon_jtag_uart_fd.c
00000000 l    df *ABS*	00000000 altera_avalon_jtag_uart_init.c
01054a10 l     F .text	0000020c altera_avalon_jtag_uart_irq
01054c1c l     F .text	000000a0 altera_avalon_jtag_uart_timeout
00000000 l    df *ABS*	00000000 altera_avalon_jtag_uart_ioctl.c
00000000 l    df *ABS*	00000000 altera_avalon_jtag_uart_read.c
00000000 l    df *ABS*	00000000 altera_avalon_jtag_uart_write.c
00000000 l    df *ABS*	00000000 altera_avalon_timer_sc.c
01055254 l     F .text	00000078 alt_avalon_timer_sc_irq
00000000 l    df *ABS*	00000000 alt_alarm_start.c
00000000 l    df *ABS*	00000000 alt_busy_sleep.c
00000000 l    df *ABS*	00000000 alt_dcache_flush_all.c
00000000 l    df *ABS*	00000000 alt_dev_llist_insert.c
010555e4 l     F .text	0000003c alt_get_errno
00000000 l    df *ABS*	00000000 alt_do_ctors.c
00000000 l    df *ABS*	00000000 alt_do_dtors.c
00000000 l    df *ABS*	00000000 alt_icache_flush_all.c
00000000 l    df *ABS*	00000000 alt_iic.c
00000000 l    df *ABS*	00000000 alt_iic_isr_register.c
00000000 l    df *ABS*	00000000 alt_io_redirect.c
01055a58 l     F .text	000000c4 alt_open_fd
00000000 l    df *ABS*	00000000 alt_irq_vars.c
00000000 l    df *ABS*	00000000 alt_open.c
01055b98 l     F .text	0000003c alt_get_errno
01055bd4 l     F .text	000000c4 alt_file_locked
00000000 l    df *ABS*	00000000 alt_tick.c
00000000 l    df *ABS*	00000000 altera_nios2_gen2_irq.c
00000000 l    df *ABS*	00000000 alt_find_dev.c
00000000 l    df *ABS*	00000000 alt_find_file.c
00000000 l    df *ABS*	00000000 alt_get_fd.c
00000000 l    df *ABS*	00000000 alt_icache_flush.c
00000000 l    df *ABS*	00000000 atexit.c
00000000 l    df *ABS*	00000000 exit.c
00000000 l    df *ABS*	00000000 memcmp.c
00000000 l    df *ABS*	00000000 __atexit.c
00000000 l    df *ABS*	00000000 __call_atexit.c
00000000 l    df *ABS*	00000000 alt_exit.c
0105a344 g     O .bss	00000004 alt_instruction_exception_handler
0104eb30 g     F .text	00000074 _mprec_log10
01041260 g     F .text	00000124 I2C_Read
0104ec1c g     F .text	0000008c __any_on
01052420 g     F .text	00000054 _isatty_r
01056bb4 g     O .rodata	00000028 __mprec_tinytens
010542a8 g     F .text	0000007c alt_main
01045ac0 g     F .text	000000c0 _puts_r
0105a398 g     O .bss	00000100 alt_irq
01043904 g     F .text	00000014 fabs
01052474 g     F .text	00000060 _lseek_r
01058824 g       *ABS*	00000000 __flash_rwdata_start
0104471c g     F .text	00000088 .hidden __eqdf2
0105a498 g       *ABS*	00000000 __alt_heap_start
01040290 g     F .text	00000188 AUDIO_Init
01045a84 g     F .text	0000003c printf
0105268c g     F .text	0000009c _wcrtomb_r
010404d8 g     F .text	00000078 AUDIO_AdcEnableHighPassFilter
0104f3ac g     F .text	0000005c __sseek
0104c290 g     F .text	00000010 __sinit
01052534 g     F .text	00000140 __swbuf_r
0104cd58 g     F .text	0000007c _setlocale_r
0104c0f8 g     F .text	00000068 __sfmoreglue
01054348 g     F .text	00000024 __malloc_unlock
0104da28 g     F .text	0000015c memmove
0104c278 g     F .text	00000018 _cleanup
01040d8c g     F .text	000000d0 aduio_RegWrite
01040f7c g     F .text	00000030 AUDIO_FifoClear
0104dcac g     F .text	000000a8 _Balloc
010447a4 g     F .text	000000dc .hidden __gtdf2
01055f90 g     F .text	00000024 altera_nios2_gen2_irq_init
01040f24 g     F .text	00000058 AUDIO_AdcFifoGetData
01041604 g     F .text	00000130 i2c_write
01040000 g     F .entry	0000001c __reset
01040020 g       *ABS*	00000000 __flash_exceptions_start
010523c4 g     F .text	0000005c _fstat_r
0105a328 g     O .bss	00000004 errno
01043918 g     F .text	000001ec floor
0104f328 g     F .text	00000008 __seofread
0104f6bc g     F .text	0000123c ___svfiprintf_internal_r
0105a330 g     O .bss	00000004 alt_argv
010607e4 g       *ABS*	00000000 _gp
010545b8 g     F .text	00000030 usleep
01057604 g     O .rwdata	00000180 alt_fd_list
01041c98 g     F .text	0000076c __ieee754_rem_pio2
01055fb4 g     F .text	00000090 alt_find_dev
0104d8e0 g     F .text	00000148 memcpy
0104bf48 g     F .text	0000000c _cleanup_r
01045914 g     F .text	000000dc .hidden __floatsidf
01055b1c g     F .text	0000007c alt_io_redirect
01053c0c g     F .text	000000f4 .hidden __ltdf2
010566b0 g       *ABS*	00000000 __DTOR_END__
01045b80 g     F .text	00000014 puts
01056280 g     F .text	0000009c alt_exception_cause_generated_bad_addr
0104f20c g     F .text	00000074 __fpclassifyd
0104ea8c g     F .text	000000a4 __ratio
01051e68 g     F .text	0000001c __vfiprintf_internal
01054e14 g     F .text	0000021c altera_avalon_jtag_uart_read
01045a54 g     F .text	00000030 _printf_r
01043db4 g     F .text	00000064 .hidden __udivsi3
01054008 g     F .text	000000a4 isatty
01040c74 g     F .text	0000008c AUDIO_EnableByPass
01056c04 g     O .rodata	000000c8 __mprec_tens
0104cdd4 g     F .text	0000000c __locale_charset
01042404 g     F .text	000004a4 __kernel_cos
0104a288 g     F .text	00000034 vsnprintf
010561f0 g     F .text	00000090 alt_icache_flush
01041384 g     F .text	0000017c I2C_MultipleRead
0105a324 g     O .bss	00000004 __malloc_top_pad
01040a4c g     F .text	00000114 AUDIO_SetLineInVol
010587ec g     O .rwdata	00000004 __mb_cur_max
0104ce04 g     F .text	0000000c _localeconv_r
0104e0b8 g     F .text	0000003c __i2b
0104c714 g     F .text	000004bc __sfvwrite_r
0104f280 g     F .text	00000054 _sbrk_r
010410d4 g     F .text	00000090 myprintf_dword_array
010524d4 g     F .text	00000060 _read_r
0105880c g     O .rwdata	00000004 alt_max_fd
010520b8 g     F .text	000000f0 _fclose_r
0104bf10 g     F .text	00000030 fflush
01040600 g     F .text	000000e0 AUDIO_DacEnableZeroCross
0105a320 g     O .bss	00000004 __malloc_max_sbrked_mem
01043638 g     F .text	000002cc __kernel_sin
01043e70 g     F .text	000008ac .hidden __adddf3
0104e834 g     F .text	0000010c __b2d
01052dec g     F .text	00000538 .hidden __umoddi3
010541d4 g     F .text	000000d4 lseek
010587e4 g     O .rwdata	00000004 _global_impure_ptr
0104eca8 g     F .text	00000564 _realloc_r
0105a498 g       *ABS*	00000000 __bss_end
01055968 g     F .text	000000f0 alt_iic_isr_register
01055e88 g     F .text	00000108 alt_tick
01052874 g     F .text	00000578 .hidden __udivdi3
01052320 g     F .text	00000024 _fputwc_r
01056bdc g     O .rodata	00000028 __mprec_bigtens
0104de9c g     F .text	00000104 __s2b
01053d00 g     F .text	000000a8 .hidden __floatunsidf
01040460 g     F .text	00000078 AUDIO_MicBoost
0104e574 g     F .text	00000060 __mcmp
0104c2b0 g     F .text	00000018 __fp_lock_all
0105591c g     F .text	0000004c alt_ic_irq_enabled
01041164 g     F .text	000000fc I2C_Write
01055dec g     F .text	0000009c alt_alarm_stop
0105a338 g     O .bss	00000004 alt_irq_active
010400fc g     F .exceptions	000000d4 alt_irq_handler
010575dc g     O .rwdata	00000028 alt_dev_null
010428a8 g     F .text	00000d90 __kernel_rem_pio2
01041500 g     F .text	0000008c i2c_start
0105559c g     F .text	00000048 alt_dcache_flush_all
0104dfa0 g     F .text	00000068 __hi0bits
01045894 g     F .text	00000080 .hidden __fixdfsi
01058824 g       *ABS*	00000000 __ram_rwdata_end
01058804 g     O .rwdata	00000008 alt_dev_list
01054624 g     F .text	000000f8 write
01056d38 g       *ABS*	00000000 __ram_rodata_end
01053f1c g     F .text	000000b0 fstat
01053c0c g     F .text	000000f4 .hidden __ledf2
01040fe0 g     F .text	0000006c myprintf
0104188c g     F .text	00000180 audio_setup
0104e2ec g     F .text	00000140 __pow5mult
01050a0c g     F .text	0000145c ___vfiprintf_internal_r
0105a318 g     O .bss	00000004 __nlocale_changed
01043e18 g     F .text	00000058 .hidden __umodsi3
01040d00 g     F .text	0000008c AUDIO_EnableSiteTone
0105a498 g       *ABS*	00000000 end
01054950 g     F .text	000000c0 altera_avalon_jtag_uart_init
010401d0 g     F .exceptions	00000074 alt_instruction_exception_entry
010566b0 g       *ABS*	00000000 __CTOR_LIST__
01080000 g       *ABS*	00000000 __alt_stack_pointer
010552cc g     F .text	0000007c alt_avalon_timer_sc_init
010459f0 g     F .text	00000064 .hidden __clzsi2
01055030 g     F .text	00000224 altera_avalon_jtag_uart_write
0104c2a0 g     F .text	00000004 __sfp_lock_acquire
0104d7fc g     F .text	000000e4 memchr
01047ec8 g     F .text	000021f8 ___vfprintf_internal_r
01045b94 g     F .text	00000058 _sprintf_r
0104c404 g     F .text	00000310 _free_r
0104cde0 g     F .text	00000010 __locale_mb_cur_max
010564fc g     F .text	00000180 __call_exitprocs
0105a314 g     O .bss	00000004 __mlocale_changed
010587f0 g     O .rwdata	00000004 __malloc_sbrk_base
01040244 g     F .text	0000004c _start
0105a33c g     O .bss	00000004 _alt_tick_rate
01041ba8 g     F .text	000000f0 sin
0104e42c g     F .text	00000148 __lshift
0105a340 g     O .bss	00000004 _alt_nticks
010543a8 g     F .text	000000fc read
01054788 g     F .text	00000064 alt_sys_init
0104f4ec g     F .text	000001d0 __ssprint_r
010563e4 g     F .text	00000118 __register_exitproc
010406e0 g     F .text	0000008c AUDIO_DacEnableSoftMute
0104e0f4 g     F .text	000001f8 __multiply
01054cbc g     F .text	00000068 altera_avalon_jtag_uart_close
01056d38 g       *ABS*	00000000 __ram_rwdata_start
010566b0 g       *ABS*	00000000 __ram_rodata_start
0105a370 g     O .bss	00000028 __malloc_current_mallinfo
0104e940 g     F .text	0000014c __d2b
010547ec g     F .text	00000060 altera_avalon_jtag_uart_read_fd
0105614c g     F .text	000000a4 alt_get_fd
01055474 g     F .text	00000128 alt_busy_sleep
01051fa0 g     F .text	00000054 _close_r
01056368 g     F .text	0000007c memcmp
010548ac g     F .text	00000050 altera_avalon_jtag_uart_close_fd
0105a498 g       *ABS*	00000000 __alt_stack_base
010548fc g     F .text	00000054 altera_avalon_jtag_uart_ioctl_fd
0104a2bc g     F .text	00000154 __swsetup_r
01053324 g     F .text	000008e8 .hidden __divdf3
0104c160 g     F .text	00000118 __sfp
0104eba4 g     F .text	00000078 __copybits
01040550 g     F .text	000000b0 AUDIO_DacDeemphasisControl
010571d4 g     O .rwdata	00000408 __malloc_av_
0104c2ac g     F .text	00000004 __sinit_lock_release
0104a198 g     F .text	000000f0 _vsnprintf_r
0104158c g     F .text	00000078 i2c_stop
01044880 g     F .text	00000718 .hidden __muldf3
0104f2d4 g     F .text	00000054 __sread
01056044 g     F .text	00000108 alt_find_file
01055620 g     F .text	000000a4 alt_dev_llist_insert
01054324 g     F .text	00000024 __malloc_lock
01054508 g     F .text	000000b0 sbrk
01045cf0 g     F .text	000021d8 ___svfprintf_internal_r
010408d8 g     F .text	00000090 AUDIO_SetInputSource
0104beb4 g     F .text	0000005c _fflush_r
01051ff4 g     F .text	000000c4 _calloc_r
01040418 g     F .text	00000048 AUDIO_InterfaceActive
0105a310 g       *ABS*	00000000 __bss_start
0104db84 g     F .text	00000128 memset
01041a0c g     F .text	0000019c main
0105a334 g     O .bss	00000004 alt_envp
0105a31c g     O .bss	00000004 __malloc_max_total_mem
0105484c g     F .text	00000060 altera_avalon_jtag_uart_write_fd
01041734 g     F .text	00000158 i2c_read
01052674 g     F .text	00000018 __swbuf
0104f408 g     F .text	00000008 __sclose
01080000 g       *ABS*	00000000 __alt_heap_limit
010521a8 g     F .text	00000014 fclose
0104a610 g     F .text	00001688 _dtoa_r
0104cff0 g     F .text	0000080c _malloc_r
010527e8 g     F .text	00000030 __ascii_wctomb
01058810 g     O .rwdata	00000004 alt_errno
0104cbd0 g     F .text	000000c4 _fwalk
01043cbc g     F .text	00000084 .hidden __divsi3
0104c2e0 g     F .text	00000124 _malloc_trim_r
010566b0 g       *ABS*	00000000 __CTOR_END__
010407f8 g     F .text	000000e0 AUDIO_LineInMute
0104f410 g     F .text	000000dc strcmp
0104076c g     F .text	0000008c AUDIO_MicMute
010566b0 g       *ABS*	00000000 __flash_rodata_start
010566b0 g       *ABS*	00000000 __DTOR_LIST__
01043ca0 g     F .text	0000001c copysign
0104471c g     F .text	00000088 .hidden __nedf2
01054750 g     F .text	00000038 alt_irq_init
010544a4 g     F .text	00000064 alt_release_fd
01045bec g     F .text	0000006c sprintf
01056a00 g     O .rodata	00000100 .hidden __clz_tab
01040fac g     F .text	00000034 debug_output
0105a310 g     O .bss	00000004 _PathLocale
0105631c g     F .text	00000014 atexit
01051f40 g     F .text	00000060 _write_r
0104ce10 g     F .text	00000018 setlocale
010587e8 g     O .rwdata	00000004 _impure_ptr
0105a32c g     O .bss	00000004 alt_argc
0104bc98 g     F .text	0000021c __sflush_r
01043b04 g     F .text	0000019c scalbn
01055724 g     F .text	00000060 _do_dtors
0104cdfc g     F .text	00000008 __locale_cjk_lang
01040ee8 g     F .text	0000003c AUDIO_AdcFifoNotEmpty
01040020 g       .exceptions	00000000 alt_irq_entry
01080000 g       *ABS*	00000000 __alt_mem_data_buffer
0104e7d0 g     F .text	00000064 __ulp
0104c2c8 g     F .text	00000018 __fp_unlock_all
01040e98 g     F .text	00000050 AUDIO_DacFifoSetData
010587fc g     O .rwdata	00000008 alt_fs_list
0104104c g     F .text	00000088 myprintf_hex_array
01040020 g       *ABS*	00000000 __ram_exceptions_start
01040968 g     F .text	000000e4 AUDIO_SetSampleRate
0104ce28 g     F .text	0000000c localeconv
01040000 g       *ABS*	00000000 __alt_mem_onchip_memory2
010557b8 g     F .text	00000050 alt_ic_isr_register
01058824 g       *ABS*	00000000 _edata
0105a498 g       *ABS*	00000000 _end
01040b60 g     F .text	00000114 AUDIO_SetLineOutVol
010521bc g     F .text	00000164 __fputwc
01040244 g       *ABS*	00000000 __ram_exceptions_end
01054d24 g     F .text	000000f0 altera_avalon_jtag_uart_ioctl
01055890 g     F .text	0000008c alt_ic_irq_disable
0104f330 g     F .text	0000007c __swrite
010587f4 g     O .rwdata	00000004 __malloc_trim_threshold
0104cdf0 g     F .text	0000000c __locale_msgcharset
01056330 g     F .text	00000038 exit
0104cc94 g     F .text	000000c4 _fwalk_reent
0104e5d4 g     F .text	000001fc __mdiff
01043d40 g     F .text	00000074 .hidden __modsi3
01080000 g       *ABS*	00000000 __alt_data_end
01040020 g     F .exceptions	00000000 alt_exception
0104c2a4 g     F .text	00000004 __sfp_lock_release
0105667c g     F .text	00000034 _exit
01055348 g     F .text	0000012c alt_alarm_start
0104ce34 g     F .text	000001bc __smakebuf_r
01045c58 g     F .text	00000098 strlen
01055c98 g     F .text	00000154 open
01040e5c g     F .text	0000003c AUDIO_DacFifoNotFull
010447a4 g     F .text	000000dc .hidden __gedf2
010587f8 g     O .rwdata	00000004 __wctomb
010509f4 g     F .text	00000018 __sprint_r
01055784 g     F .text	00000034 alt_icache_flush_all
01058818 g     O .rwdata	00000004 alt_priority_mask
01055808 g     F .text	00000088 alt_ic_irq_enable
0104a0c0 g     F .text	0000001c __vfprintf_internal
01052818 g     F .text	0000005c _wctomb_r
01044f98 g     F .text	000008fc .hidden __subdf3
0104e008 g     F .text	000000b0 __lo0bits
0105881c g     O .rwdata	00000008 alt_alarm_list
010556c4 g     F .text	00000060 _do_ctors
01052728 g     F .text	000000c0 wcrtomb
01053de4 g     F .text	000000d0 close
01054114 g     F .text	00000084 alt_load
01052344 g     F .text	00000080 fputwc
0104c2a8 g     F .text	00000004 __sinit_lock_acquire
0104dd7c g     F .text	00000120 __multadd
0104dd54 g     F .text	00000028 _Bfree



Disassembly of section .entry:

01040000 <__reset>:
#if NIOS2_ICACHE_SIZE > 0 && defined(ALT_ALLOW_CODE_AT_RESET) && (!defined(ALT_SIM_OPTIMIZE) || defined(NIOS2_ECC_PRESENT))
    /* Assume the instruction cache size is always a power of two. */
#if NIOS2_ICACHE_SIZE > 0x8000
    movhi r2, %hi(NIOS2_ICACHE_SIZE)
#else
    movui r2, NIOS2_ICACHE_SIZE
 1040000:	00840014 	movui	r2,4096
#endif

0:
    initi r2
 1040004:	1001483a 	initi	r2
    addi r2, r2, -NIOS2_ICACHE_LINE_SIZE
 1040008:	10bff804 	addi	r2,r2,-32
    bgt r2, zero, 0b
 104000c:	00bffd16 	blt	zero,r2,1040004 <__alt_data_end+0xfffc0004>
 * Jump to the _start entry point in the .text section if reset code
 * is allowed or if optimizing for RTL simulation.
 */
#if defined(ALT_ALLOW_CODE_AT_RESET) || defined(ALT_SIM_OPTIMIZE)
    /* Jump to the _start entry point in the .text section. */
    movhi r1, %hi(_start)
 1040010:	00404134 	movhi	at,260
    ori r1, r1, %lo(_start)
 1040014:	08409114 	ori	at,at,580
    jmp r1
 1040018:	0800683a 	jmp	at
 104001c:	00000000 	call	0 <__alt_mem_onchip_memory2-0x1040000>

Disassembly of section .exceptions:

01040020 <alt_exception>:

#else /* ALT_EXCEPTION_STACK disabled */
        /* 
         * Reserve space on normal stack for registers about to be pushed.
         */
        addi  sp, sp, -76
 1040020:	deffed04 	addi	sp,sp,-76
         * documentation for details).
         *
         * Leave a gap in the stack frame at 4(sp) for the muldiv handler to
         * store zero into.
         */
        stw   ra,  0(sp)
 1040024:	dfc00015 	stw	ra,0(sp)
        stw   r1,   8(sp)
 1040028:	d8400215 	stw	at,8(sp)
        stw   r2,  12(sp)
 104002c:	d8800315 	stw	r2,12(sp)
        stw   r3,  16(sp)
 1040030:	d8c00415 	stw	r3,16(sp)
        stw   r4,  20(sp)
 1040034:	d9000515 	stw	r4,20(sp)
        stw   r5,  24(sp)
 1040038:	d9400615 	stw	r5,24(sp)
        stw   r6,  28(sp)
 104003c:	d9800715 	stw	r6,28(sp)
        stw   r7,  32(sp)
 1040040:	d9c00815 	stw	r7,32(sp)
        rdctl r5, estatus   /* Read early to avoid usage stall */
 1040044:	000b307a 	rdctl	r5,estatus
        stw   r8,  36(sp)
 1040048:	da000915 	stw	r8,36(sp)
        stw   r9,  40(sp)
 104004c:	da400a15 	stw	r9,40(sp)
        stw   r10, 44(sp)
 1040050:	da800b15 	stw	r10,44(sp)
        stw   r11, 48(sp)
 1040054:	dac00c15 	stw	r11,48(sp)
        stw   r12, 52(sp)
 1040058:	db000d15 	stw	r12,52(sp)
        stw   r13, 56(sp)
 104005c:	db400e15 	stw	r13,56(sp)
        stw   r14, 60(sp)
 1040060:	db800f15 	stw	r14,60(sp)
        stw   r15, 64(sp)
 1040064:	dbc01015 	stw	r15,64(sp)
        /*
         * ea-4 contains the address of the instruction being executed
         * when the exception occured. For interrupt exceptions, we will
         * will be re-issue the isntruction. Store it in 72(sp)
         */
        stw   r5,  68(sp)  /* estatus */
 1040068:	d9401115 	stw	r5,68(sp)
        addi  r15, ea, -4  /* instruction that caused exception */
 104006c:	ebffff04 	addi	r15,ea,-4
        stw   r15,  72(sp)
 1040070:	dbc01215 	stw	r15,72(sp)
#else
        /*
         * Test to see if the exception was a software exception or caused 
         * by an external interrupt, and vector accordingly.
         */
        rdctl r4, ipending
 1040074:	0009313a 	rdctl	r4,ipending
        andi  r2, r5, 1
 1040078:	2880004c 	andi	r2,r5,1
        beq   r2, zero, .Lnot_irq
 104007c:	10000326 	beq	r2,zero,104008c <alt_exception+0x6c>
        beq   r4, zero, .Lnot_irq
 1040080:	20000226 	beq	r4,zero,104008c <alt_exception+0x6c>
        /*
         * Now that all necessary registers have been preserved, call 
         * alt_irq_handler() to process the interrupts.
         */

        call alt_irq_handler
 1040084:	10400fc0 	call	10400fc <alt_irq_handler>

        .section .exceptions.irqreturn, "xa"

        br    .Lexception_exit
 1040088:	00000706 	br	10400a8 <alt_exception+0x88>
         * upon completion, so we write ea (address of instruction *after*
         * the one where the exception occured) into 72(sp). The actual
         * instruction that caused the exception is written in r2, which these
         * handlers will utilize.
         */
        stw ea, 72(sp) /* EA is PC+4 so will skip over instruction causing exception */
 104008c:	df401215 	stw	ea,72(sp)
.Lunknown_16bit:
        addi.n r4, r4, 2 /* Need PC+2 to skip over instruction causing exception */
        stw r4, 72(sp)

#else /* CDX is not Enabled and all instructions are 32bits */
        ldw r2, -4(ea) /* Instruction value that caused exception */
 1040090:	e8bfff17 	ldw	r2,-4(ea)
         * debugger is present) or go into an infinite loop since the
         * handling behavior is undefined; in that case we will not return here.
         */

        /* Load exception-causing address as first argument (r4) */
        addi   r4, ea, -4
 1040094:	e93fff04 	addi	r4,ea,-4

        /* Call the instruction-exception entry */
        call   alt_instruction_exception_entry
 1040098:	10401d00 	call	10401d0 <alt_instruction_exception_entry>
         * instruction
         *
         * Return code was 0: Skip. The instruction after the exception is
         * already stored in 72(sp).
         */
        bne   r2, r0, .Lexception_exit
 104009c:	1000021e 	bne	r2,zero,10400a8 <alt_exception+0x88>

        /*
         * Otherwise, modify 72(sp) to re-issue the instruction that caused the
         * exception.
         */
        addi  r15, ea, -4  /* instruction that caused exception */
 10400a0:	ebffff04 	addi	r15,ea,-4
        stw   r15,  72(sp)
 10400a4:	dbc01215 	stw	r15,72(sp)
        /* 
         * Restore the saved registers, so that all general purpose registers 
         * have been restored to their state at the time the interrupt occured.
         */

        ldw   r5,  68(sp)
 10400a8:	d9401117 	ldw	r5,68(sp)
        ldw   ea,  72(sp)  /* This becomes the PC once eret is executed */
 10400ac:	df401217 	ldw	ea,72(sp)
        ldw   ra,   0(sp)
 10400b0:	dfc00017 	ldw	ra,0(sp)

        wrctl estatus, r5
 10400b4:	2801707a 	wrctl	estatus,r5

        ldw   r1,   8(sp)
 10400b8:	d8400217 	ldw	at,8(sp)
        ldw   r2,  12(sp)
 10400bc:	d8800317 	ldw	r2,12(sp)
        ldw   r3,  16(sp)
 10400c0:	d8c00417 	ldw	r3,16(sp)
        ldw   r4,  20(sp)
 10400c4:	d9000517 	ldw	r4,20(sp)
        ldw   r5,  24(sp)
 10400c8:	d9400617 	ldw	r5,24(sp)
        ldw   r6,  28(sp)
 10400cc:	d9800717 	ldw	r6,28(sp)
        ldw   r7,  32(sp)
 10400d0:	d9c00817 	ldw	r7,32(sp)

#if defined(ALT_EXCEPTION_STACK) && defined(ALT_STACK_CHECK)
        ldw   et, %gprel(alt_exception_old_stack_limit)(gp)
#endif

        ldw   r8,  36(sp)
 10400d4:	da000917 	ldw	r8,36(sp)
        ldw   r9,  40(sp)
 10400d8:	da400a17 	ldw	r9,40(sp)
        ldw   r10, 44(sp)
 10400dc:	da800b17 	ldw	r10,44(sp)
        ldw   r11, 48(sp)
 10400e0:	dac00c17 	ldw	r11,48(sp)
        ldw   r12, 52(sp)
 10400e4:	db000d17 	ldw	r12,52(sp)
        ldw   r13, 56(sp)
 10400e8:	db400e17 	ldw	r13,56(sp)
        ldw   r14, 60(sp)
 10400ec:	db800f17 	ldw	r14,60(sp)
        ldw   r15, 64(sp)
 10400f0:	dbc01017 	ldw	r15,64(sp)
        stw   et, %gprel(alt_stack_limit_value)(gp)
        stw   zero, %gprel(alt_exception_old_stack_limit)(gp)
#endif /* ALT_STACK_CHECK */
        ldw   sp,  76(sp)
#else /* ALT_EXCEPTION_STACK disabled */
        addi  sp, sp, 76
 10400f4:	dec01304 	addi	sp,sp,76

        /*
         * Return to the interrupted instruction.
         */

        eret
 10400f8:	ef80083a 	eret

010400fc <alt_irq_handler>:
 * instruction is present if the macro ALT_CI_INTERRUPT_VECTOR defined.
 */

void alt_irq_handler (void) __attribute__ ((section (".exceptions")));
void alt_irq_handler (void)
{
 10400fc:	defff904 	addi	sp,sp,-28
 1040100:	dfc00615 	stw	ra,24(sp)
 1040104:	df000515 	stw	fp,20(sp)
 1040108:	df000504 	addi	fp,sp,20
  
  /*
   * Notify the operating system that we are at interrupt level.
   */ 
  
  ALT_OS_INT_ENTER();
 104010c:	0001883a 	nop
#ifndef NIOS2_EIC_PRESENT
static ALT_INLINE alt_u32 ALT_ALWAYS_INLINE alt_irq_pending (void)
{
  alt_u32 active;

  NIOS2_READ_IPENDING (active);
 1040110:	0005313a 	rdctl	r2,ipending
 1040114:	e0bffe15 	stw	r2,-8(fp)

  return active;
 1040118:	e0bffe17 	ldw	r2,-8(fp)
   * Consider the case where the high priority interupt is asserted during
   * the interrupt entry sequence for a lower priority interrupt to see why
   * this is the case.
   */

  active = alt_irq_pending ();
 104011c:	e0bffb15 	stw	r2,-20(fp)

  do
  {
    i = 0;
 1040120:	e03ffd15 	stw	zero,-12(fp)
    mask = 1;
 1040124:	00800044 	movi	r2,1
 1040128:	e0bffc15 	stw	r2,-16(fp)
     * called to clear the interrupt condition.
     */

    do
    {
      if (active & mask)
 104012c:	e0fffb17 	ldw	r3,-20(fp)
 1040130:	e0bffc17 	ldw	r2,-16(fp)
 1040134:	1884703a 	and	r2,r3,r2
 1040138:	10001426 	beq	r2,zero,104018c <alt_irq_handler+0x90>
      { 
#ifdef ALT_ENHANCED_INTERRUPT_API_PRESENT
        alt_irq[i].handler(alt_irq[i].context); 
 104013c:	008041b4 	movhi	r2,262
 1040140:	10a8e604 	addi	r2,r2,-23656
 1040144:	e0fffd17 	ldw	r3,-12(fp)
 1040148:	180690fa 	slli	r3,r3,3
 104014c:	10c5883a 	add	r2,r2,r3
 1040150:	10c00017 	ldw	r3,0(r2)
 1040154:	008041b4 	movhi	r2,262
 1040158:	10a8e604 	addi	r2,r2,-23656
 104015c:	e13ffd17 	ldw	r4,-12(fp)
 1040160:	200890fa 	slli	r4,r4,3
 1040164:	1105883a 	add	r2,r2,r4
 1040168:	10800104 	addi	r2,r2,4
 104016c:	10800017 	ldw	r2,0(r2)
 1040170:	1009883a 	mov	r4,r2
 1040174:	183ee83a 	callr	r3
#else
        alt_irq[i].handler(alt_irq[i].context, i); 
#endif
        break;
 1040178:	0001883a 	nop
#ifndef NIOS2_EIC_PRESENT
static ALT_INLINE alt_u32 ALT_ALWAYS_INLINE alt_irq_pending (void)
{
  alt_u32 active;

  NIOS2_READ_IPENDING (active);
 104017c:	0005313a 	rdctl	r2,ipending
 1040180:	e0bfff15 	stw	r2,-4(fp)

  return active;
 1040184:	e0bfff17 	ldw	r2,-4(fp)
 1040188:	00000706 	br	10401a8 <alt_irq_handler+0xac>
      }
      mask <<= 1;
 104018c:	e0bffc17 	ldw	r2,-16(fp)
 1040190:	1085883a 	add	r2,r2,r2
 1040194:	e0bffc15 	stw	r2,-16(fp)
      i++;
 1040198:	e0bffd17 	ldw	r2,-12(fp)
 104019c:	10800044 	addi	r2,r2,1
 10401a0:	e0bffd15 	stw	r2,-12(fp)

    } while (1);
 10401a4:	003fe106 	br	104012c <__alt_data_end+0xfffc012c>

    active = alt_irq_pending ();
 10401a8:	e0bffb15 	stw	r2,-20(fp)
    
  } while (active);
 10401ac:	e0bffb17 	ldw	r2,-20(fp)
 10401b0:	103fdb1e 	bne	r2,zero,1040120 <__alt_data_end+0xfffc0120>

  /*
   * Notify the operating system that interrupt processing is complete.
   */ 

  ALT_OS_INT_EXIT();
 10401b4:	0001883a 	nop
}
 10401b8:	0001883a 	nop
 10401bc:	e037883a 	mov	sp,fp
 10401c0:	dfc00117 	ldw	ra,4(sp)
 10401c4:	df000017 	ldw	fp,0(sp)
 10401c8:	dec00204 	addi	sp,sp,8
 10401cc:	f800283a 	ret

010401d0 <alt_instruction_exception_entry>:
 * that handler if it has been registered. Absent a handler, it will
 * break break or hang as discussed below.
 */
int 
alt_instruction_exception_entry (alt_u32 exception_pc)
{
 10401d0:	defffb04 	addi	sp,sp,-20
 10401d4:	dfc00415 	stw	ra,16(sp)
 10401d8:	df000315 	stw	fp,12(sp)
 10401dc:	df000304 	addi	fp,sp,12
 10401e0:	e13fff15 	stw	r4,-4(fp)
 * NIOS2_EXCEPTION_CAUSE_NOT_PRESENT. Your handling routine should
 * check the validity of the cause argument before proceeding.
 */
#ifdef NIOS2_HAS_EXTRA_EXCEPTION_INFO
  /* Get exception cause & "badaddr" */
  NIOS2_READ_EXCEPTION(cause);
 10401e4:	000531fa 	rdctl	r2,exception
 10401e8:	e0bffd15 	stw	r2,-12(fp)
  cause = ( (cause & NIOS2_EXCEPTION_REG_CAUSE_MASK) >>
 10401ec:	e0bffd17 	ldw	r2,-12(fp)
 10401f0:	10801f0c 	andi	r2,r2,124
 10401f4:	1004d0ba 	srli	r2,r2,2
 10401f8:	e0bffd15 	stw	r2,-12(fp)
              NIOS2_EXCEPTION_REG_CAUSE_OFST );

  NIOS2_READ_BADADDR(badaddr);
 10401fc:	0005333a 	rdctl	r2,badaddr
 1040200:	e0bffe15 	stw	r2,-8(fp)
#else
  cause = NIOS2_EXCEPTION_CAUSE_NOT_PRESENT;
  badaddr = 0;
#endif /* NIOS2_HAS_EXTRA_EXCEPTION_INFO */

  if(alt_instruction_exception_handler) {
 1040204:	d0a6d817 	ldw	r2,-25760(gp)
 1040208:	10000726 	beq	r2,zero,1040228 <alt_instruction_exception_entry+0x58>
     * Call handler. Its return value indicates whether the exception-causing
     * instruction should be re-issued. The code that called us,
     * alt_eceptions_entry.S, will look at this value and adjust the ea
     * register as necessary
     */
    return alt_instruction_exception_handler(cause, exception_pc, badaddr);
 104020c:	d0a6d817 	ldw	r2,-25760(gp)
 1040210:	e0fffd17 	ldw	r3,-12(fp)
 1040214:	e1bffe17 	ldw	r6,-8(fp)
 1040218:	e17fff17 	ldw	r5,-4(fp)
 104021c:	1809883a 	mov	r4,r3
 1040220:	103ee83a 	callr	r2
 1040224:	00000206 	br	1040230 <alt_instruction_exception_entry+0x60>
   *    (a peripheral which negates its interrupt output before its
   *    interrupt handler has been executed will cause spurious interrupts)
   */
  else {
#ifdef NIOS2_HAS_DEBUG_STUB
    NIOS2_BREAK();
 1040228:	003da03a 	break	0
      ;
#endif /* NIOS2_HAS_DEBUG_STUB */
  }

  /* We should not get here. Remove compiler warning. */
  return NIOS2_EXCEPTION_RETURN_REISSUE_INST;
 104022c:	0005883a 	mov	r2,zero
}
 1040230:	e037883a 	mov	sp,fp
 1040234:	dfc00117 	ldw	ra,4(sp)
 1040238:	df000017 	ldw	fp,0(sp)
 104023c:	dec00204 	addi	sp,sp,8
 1040240:	f800283a 	ret

Disassembly of section .text:

01040244 <_start>:

    /* Assume the data cache size is always a power of two. */
#if NIOS2_DCACHE_SIZE > 0x8000
    movhi r2, %hi(NIOS2_DCACHE_SIZE)
#else
    movui r2, NIOS2_DCACHE_SIZE
 1040244:	00820014 	movui	r2,2048
#endif

0:
    initd 0(r2)
 1040248:	10000033 	initd	0(r2)
#ifdef NIOS2_ECC_PRESENT
    addi r2, r2, -4
#else
    addi r2, r2, -NIOS2_DCACHE_LINE_SIZE
 104024c:	10bff804 	addi	r2,r2,-32
#endif
    bgt r2, zero, 0b
 1040250:	00bffd16 	blt	zero,r2,1040248 <__alt_data_end+0xfffc0248>

    /*
     * Now that the caches are initialized, set up the stack pointer and global pointer.
     * The values provided by the linker are assumed to be correctly aligned.
     */
    movhi sp, %hi(__alt_stack_pointer)
 1040254:	06c04234 	movhi	sp,264
    ori sp, sp, %lo(__alt_stack_pointer)
 1040258:	dec00014 	ori	sp,sp,0
    movhi gp, %hi(_gp)
 104025c:	068041b4 	movhi	gp,262
    ori gp, gp, %lo(_gp)
 1040260:	d681f914 	ori	gp,gp,2020
 */
#ifndef ALT_SIM_OPTIMIZE
    /* Log that the BSS is about to be cleared. */
    ALT_LOG_PUTS(alt_log_msg_bss)

    movhi r2, %hi(__bss_start)
 1040264:	00804174 	movhi	r2,261
    ori r2, r2, %lo(__bss_start)
 1040268:	10a8c414 	ori	r2,r2,41744

    movhi r3, %hi(__bss_end)
 104026c:	00c04174 	movhi	r3,261
    ori r3, r3, %lo(__bss_end)
 1040270:	18e92614 	ori	r3,r3,42136

    beq r2, r3, 1f
 1040274:	10c00326 	beq	r2,r3,1040284 <_start+0x40>

0:
    stw zero, (r2)
 1040278:	10000015 	stw	zero,0(r2)
    addi r2, r2, 4
 104027c:	10800104 	addi	r2,r2,4
    bltu r2, r3, 0b
 1040280:	10fffd36 	bltu	r2,r3,1040278 <__alt_data_end+0xfffc0278>
     * section aren't defined until alt_load() has been called).
     */
    mov   et, zero
#endif

    call alt_load
 1040284:	10541140 	call	1054114 <alt_load>

    /* Log that alt_main is about to be called. */
    ALT_LOG_PUTS(alt_log_msg_alt_main)

    /* Call the C entry point. It should never return. */
    call alt_main
 1040288:	10542a80 	call	10542a8 <alt_main>

0104028c <alt_after_alt_main>:

    /* Wait in infinite loop in case alt_main does return. */
alt_after_alt_main:
    br alt_after_alt_main
 104028c:	003fff06 	br	104028c <__alt_data_end+0xfffc028c>

01040290 <AUDIO_Init>:

/////////////////////////////////////////////////////////////////////////
///////////// External function body ////////////////////////////////////
/////////////////////////////////////////////////////////////////////////

bool AUDIO_Init(void){
 1040290:	defffd04 	addi	sp,sp,-12
 1040294:	dfc00215 	stw	ra,8(sp)
 1040298:	df000115 	stw	fp,4(sp)
 104029c:	df000104 	addi	fp,sp,4
   bool bSuccess = TRUE;
 10402a0:	00800044 	movi	r2,1
 10402a4:	e0bfff15 	stw	r2,-4(fp)
    AUDIO_DEBUG(("[AUDIO] AUDIO_Init...\r\n"));
 10402a8:	01004174 	movhi	r4,261
 10402ac:	2119ac04 	addi	r4,r4,26288
 10402b0:	1040fe00 	call	1040fe0 <myprintf>

    if (bSuccess)
 10402b4:	e0bfff17 	ldw	r2,-4(fp)
 10402b8:	10000426 	beq	r2,zero,10402cc <AUDIO_Init+0x3c>
        bSuccess = aduio_RegWrite(15, 0x0000);  // reset
 10402bc:	000b883a 	mov	r5,zero
 10402c0:	010003c4 	movi	r4,15
 10402c4:	1040d8c0 	call	1040d8c <aduio_RegWrite>
 10402c8:	e0bfff15 	stw	r2,-4(fp)

    if (bSuccess)
 10402cc:	e0bfff17 	ldw	r2,-4(fp)
 10402d0:	10000426 	beq	r2,zero,10402e4 <AUDIO_Init+0x54>
        bSuccess = aduio_RegWrite(9, 0x0000);  // inactive interface         
 10402d4:	000b883a 	mov	r5,zero
 10402d8:	01000244 	movi	r4,9
 10402dc:	1040d8c0 	call	1040d8c <aduio_RegWrite>
 10402e0:	e0bfff15 	stw	r2,-4(fp)
       
    //usleep(20*1000);
    if (bSuccess)
 10402e4:	e0bfff17 	ldw	r2,-4(fp)
 10402e8:	10000426 	beq	r2,zero,10402fc <AUDIO_Init+0x6c>
        bSuccess = aduio_RegWrite(0, 0x0017);  // Left Line In: set left line in volume
 10402ec:	014005c4 	movi	r5,23
 10402f0:	0009883a 	mov	r4,zero
 10402f4:	1040d8c0 	call	1040d8c <aduio_RegWrite>
 10402f8:	e0bfff15 	stw	r2,-4(fp)
        
    if (bSuccess)
 10402fc:	e0bfff17 	ldw	r2,-4(fp)
 1040300:	10000426 	beq	r2,zero,1040314 <AUDIO_Init+0x84>
        bSuccess = aduio_RegWrite(1, 0x0017);  // Right Line In: set right line in volume
 1040304:	014005c4 	movi	r5,23
 1040308:	01000044 	movi	r4,1
 104030c:	1040d8c0 	call	1040d8c <aduio_RegWrite>
 1040310:	e0bfff15 	stw	r2,-4(fp)
        
    if (bSuccess)
 1040314:	e0bfff17 	ldw	r2,-4(fp)
 1040318:	10000426 	beq	r2,zero,104032c <AUDIO_Init+0x9c>
        bSuccess = aduio_RegWrite(2, 0x005B);  // Left Headphone Out: set left line out volume
 104031c:	014016c4 	movi	r5,91
 1040320:	01000084 	movi	r4,2
 1040324:	1040d8c0 	call	1040d8c <aduio_RegWrite>
 1040328:	e0bfff15 	stw	r2,-4(fp)
        
    if (bSuccess)
 104032c:	e0bfff17 	ldw	r2,-4(fp)
 1040330:	10000426 	beq	r2,zero,1040344 <AUDIO_Init+0xb4>
        bSuccess = aduio_RegWrite(3, 0x005B);  // Right Headphone Out: set right line out volume
 1040334:	014016c4 	movi	r5,91
 1040338:	010000c4 	movi	r4,3
 104033c:	1040d8c0 	call	1040d8c <aduio_RegWrite>
 1040340:	e0bfff15 	stw	r2,-4(fp)
        
    if (bSuccess)      
 1040344:	e0bfff17 	ldw	r2,-4(fp)
 1040348:	10000426 	beq	r2,zero,104035c <AUDIO_Init+0xcc>
        bSuccess = aduio_RegWrite(4, 0x0015);  // Analogue Audio Path Control: set mic as input and boost it, and enable dac
 104034c:	01400544 	movi	r5,21
 1040350:	01000104 	movi	r4,4
 1040354:	1040d8c0 	call	1040d8c <aduio_RegWrite>
 1040358:	e0bfff15 	stw	r2,-4(fp)
                
    if (bSuccess)
 104035c:	e0bfff17 	ldw	r2,-4(fp)
 1040360:	10000426 	beq	r2,zero,1040374 <AUDIO_Init+0xe4>
        bSuccess = aduio_RegWrite(5, 0x0000);  // Digital Audio Path Control: disable soft mute         
 1040364:	000b883a 	mov	r5,zero
 1040368:	01000144 	movi	r4,5
 104036c:	1040d8c0 	call	1040d8c <aduio_RegWrite>
 1040370:	e0bfff15 	stw	r2,-4(fp)

    if (bSuccess)
 1040374:	e0bfff17 	ldw	r2,-4(fp)
 1040378:	10000426 	beq	r2,zero,104038c <AUDIO_Init+0xfc>
        bSuccess = aduio_RegWrite(6, 0);  // power down control: power on all         
 104037c:	000b883a 	mov	r5,zero
 1040380:	01000184 	movi	r4,6
 1040384:	1040d8c0 	call	1040d8c <aduio_RegWrite>
 1040388:	e0bfff15 	stw	r2,-4(fp)

    if (bSuccess)
 104038c:	e0bfff17 	ldw	r2,-4(fp)
 1040390:	10000426 	beq	r2,zero,10403a4 <AUDIO_Init+0x114>
        bSuccess = aduio_RegWrite(7, 0x0042);  // I2S, iwl=16-bits, Enable Master Mode         
 1040394:	01401084 	movi	r5,66
 1040398:	010001c4 	movi	r4,7
 104039c:	1040d8c0 	call	1040d8c <aduio_RegWrite>
 10403a0:	e0bfff15 	stw	r2,-4(fp)
//        bSuccess = aduio_RegWrite(7, 0x0041);  // MSB-First, left justified, iwl=16-bits, Enable Master Mode         

    if (bSuccess)
 10403a4:	e0bfff17 	ldw	r2,-4(fp)
 10403a8:	10000426 	beq	r2,zero,10403bc <AUDIO_Init+0x12c>
        bSuccess = aduio_RegWrite(8, 0x0002);  // Normal, Base OVer-Sampleing Rate 384 fs (BOSR=1)         
 10403ac:	01400084 	movi	r5,2
 10403b0:	01000204 	movi	r4,8
 10403b4:	1040d8c0 	call	1040d8c <aduio_RegWrite>
 10403b8:	e0bfff15 	stw	r2,-4(fp)


    if (bSuccess)
 10403bc:	e0bfff17 	ldw	r2,-4(fp)
 10403c0:	10000426 	beq	r2,zero,10403d4 <AUDIO_Init+0x144>
        bSuccess = aduio_RegWrite(9, 0x0001);  // active interface
 10403c4:	01400044 	movi	r5,1
 10403c8:	01000244 	movi	r4,9
 10403cc:	1040d8c0 	call	1040d8c <aduio_RegWrite>
 10403d0:	e0bfff15 	stw	r2,-4(fp)
        
        
         
    AUDIO_DEBUG(("[AUDIO] AUDIO_Init %s\r\n", bSuccess?"success":"fail"));        
 10403d4:	e0bfff17 	ldw	r2,-4(fp)
 10403d8:	10000326 	beq	r2,zero,10403e8 <AUDIO_Init+0x158>
 10403dc:	00804174 	movhi	r2,261
 10403e0:	1099b204 	addi	r2,r2,26312
 10403e4:	00000206 	br	10403f0 <AUDIO_Init+0x160>
 10403e8:	00804174 	movhi	r2,261
 10403ec:	1099b404 	addi	r2,r2,26320
 10403f0:	100b883a 	mov	r5,r2
 10403f4:	01004174 	movhi	r4,261
 10403f8:	2119b604 	addi	r4,r4,26328
 10403fc:	1040fe00 	call	1040fe0 <myprintf>
    
    return bSuccess;
 1040400:	e0bfff17 	ldw	r2,-4(fp)

}
 1040404:	e037883a 	mov	sp,fp
 1040408:	dfc00117 	ldw	ra,4(sp)
 104040c:	df000017 	ldw	fp,0(sp)
 1040410:	dec00204 	addi	sp,sp,8
 1040414:	f800283a 	ret

01040418 <AUDIO_InterfaceActive>:

bool AUDIO_InterfaceActive(bool bActive){
 1040418:	defffc04 	addi	sp,sp,-16
 104041c:	dfc00315 	stw	ra,12(sp)
 1040420:	df000215 	stw	fp,8(sp)
 1040424:	df000204 	addi	fp,sp,8
 1040428:	e13fff15 	stw	r4,-4(fp)
    bool bSuccess;
    bSuccess = aduio_RegWrite(9, bActive?0x0001:0x0000); 
 104042c:	e0bfff17 	ldw	r2,-4(fp)
 1040430:	1004c03a 	cmpne	r2,r2,zero
 1040434:	10803fcc 	andi	r2,r2,255
 1040438:	100b883a 	mov	r5,r2
 104043c:	01000244 	movi	r4,9
 1040440:	1040d8c0 	call	1040d8c <aduio_RegWrite>
 1040444:	e0bffe15 	stw	r2,-8(fp)
    return bSuccess;
 1040448:	e0bffe17 	ldw	r2,-8(fp)
}
 104044c:	e037883a 	mov	sp,fp
 1040450:	dfc00117 	ldw	ra,4(sp)
 1040454:	df000017 	ldw	fp,0(sp)
 1040458:	dec00204 	addi	sp,sp,8
 104045c:	f800283a 	ret

01040460 <AUDIO_MicBoost>:

bool AUDIO_MicBoost(bool bBoost){
 1040460:	defffb04 	addi	sp,sp,-20
 1040464:	dfc00415 	stw	ra,16(sp)
 1040468:	df000315 	stw	fp,12(sp)
 104046c:	df000304 	addi	fp,sp,12
 1040470:	e13fff15 	stw	r4,-4(fp)
    bool bSuccess;
    alt_u16 control;
    control = reg_file[4];
 1040474:	008041b4 	movhi	r2,262
 1040478:	10a8d204 	addi	r2,r2,-23736
 104047c:	1080020b 	ldhu	r2,8(r2)
 1040480:	e0bffd0d 	sth	r2,-12(fp)
    if (bBoost)
 1040484:	e0bfff17 	ldw	r2,-4(fp)
 1040488:	10000426 	beq	r2,zero,104049c <AUDIO_MicBoost+0x3c>
        control |= 0x0001;
 104048c:	e0bffd0b 	ldhu	r2,-12(fp)
 1040490:	10800054 	ori	r2,r2,1
 1040494:	e0bffd0d 	sth	r2,-12(fp)
 1040498:	00000406 	br	10404ac <AUDIO_MicBoost+0x4c>
    else        
        control &= 0xFFFE;
 104049c:	e0fffd0b 	ldhu	r3,-12(fp)
 10404a0:	00bfff84 	movi	r2,-2
 10404a4:	1884703a 	and	r2,r3,r2
 10404a8:	e0bffd0d 	sth	r2,-12(fp)
    bSuccess = aduio_RegWrite(4, control);  // Left Line In: set left line in volume
 10404ac:	e0bffd0b 	ldhu	r2,-12(fp)
 10404b0:	100b883a 	mov	r5,r2
 10404b4:	01000104 	movi	r4,4
 10404b8:	1040d8c0 	call	1040d8c <aduio_RegWrite>
 10404bc:	e0bffe15 	stw	r2,-8(fp)
    return bSuccess;
 10404c0:	e0bffe17 	ldw	r2,-8(fp)
}
 10404c4:	e037883a 	mov	sp,fp
 10404c8:	dfc00117 	ldw	ra,4(sp)
 10404cc:	df000017 	ldw	fp,0(sp)
 10404d0:	dec00204 	addi	sp,sp,8
 10404d4:	f800283a 	ret

010404d8 <AUDIO_AdcEnableHighPassFilter>:

bool AUDIO_AdcEnableHighPassFilter(bool bEnable){
 10404d8:	defffb04 	addi	sp,sp,-20
 10404dc:	dfc00415 	stw	ra,16(sp)
 10404e0:	df000315 	stw	fp,12(sp)
 10404e4:	df000304 	addi	fp,sp,12
 10404e8:	e13fff15 	stw	r4,-4(fp)
    bool bSuccess;
    alt_u16 control;
    control = reg_file[5];
 10404ec:	008041b4 	movhi	r2,262
 10404f0:	10a8d204 	addi	r2,r2,-23736
 10404f4:	1080028b 	ldhu	r2,10(r2)
 10404f8:	e0bffd0d 	sth	r2,-12(fp)
    if (bEnable)
 10404fc:	e0bfff17 	ldw	r2,-4(fp)
 1040500:	10000526 	beq	r2,zero,1040518 <AUDIO_AdcEnableHighPassFilter+0x40>
        control &= 0xFFFE;
 1040504:	e0fffd0b 	ldhu	r3,-12(fp)
 1040508:	00bfff84 	movi	r2,-2
 104050c:	1884703a 	and	r2,r3,r2
 1040510:	e0bffd0d 	sth	r2,-12(fp)
 1040514:	00000306 	br	1040524 <AUDIO_AdcEnableHighPassFilter+0x4c>
    else        
        control |= 0x0001;
 1040518:	e0bffd0b 	ldhu	r2,-12(fp)
 104051c:	10800054 	ori	r2,r2,1
 1040520:	e0bffd0d 	sth	r2,-12(fp)
    bSuccess = aduio_RegWrite(5, control);  // Left Line In: set left line in volume
 1040524:	e0bffd0b 	ldhu	r2,-12(fp)
 1040528:	100b883a 	mov	r5,r2
 104052c:	01000144 	movi	r4,5
 1040530:	1040d8c0 	call	1040d8c <aduio_RegWrite>
 1040534:	e0bffe15 	stw	r2,-8(fp)
    return bSuccess;    
 1040538:	e0bffe17 	ldw	r2,-8(fp)
}
 104053c:	e037883a 	mov	sp,fp
 1040540:	dfc00117 	ldw	ra,4(sp)
 1040544:	df000017 	ldw	fp,0(sp)
 1040548:	dec00204 	addi	sp,sp,8
 104054c:	f800283a 	ret

01040550 <AUDIO_DacDeemphasisControl>:



bool AUDIO_DacDeemphasisControl(alt_u8 deemphasis_type){
 1040550:	defffb04 	addi	sp,sp,-20
 1040554:	dfc00415 	stw	ra,16(sp)
 1040558:	df000315 	stw	fp,12(sp)
 104055c:	df000304 	addi	fp,sp,12
 1040560:	2005883a 	mov	r2,r4
 1040564:	e0bfff05 	stb	r2,-4(fp)
    bool bSuccess;
    alt_u16 control;
    control = reg_file[5];
 1040568:	008041b4 	movhi	r2,262
 104056c:	10a8d204 	addi	r2,r2,-23736
 1040570:	1080028b 	ldhu	r2,10(r2)
 1040574:	e0bffd0d 	sth	r2,-12(fp)
    control &= 0xFFF9;
 1040578:	e0fffd0b 	ldhu	r3,-12(fp)
 104057c:	00bffe44 	movi	r2,-7
 1040580:	1884703a 	and	r2,r3,r2
 1040584:	e0bffd0d 	sth	r2,-12(fp)
    switch(deemphasis_type){
 1040588:	e0bfff03 	ldbu	r2,-4(fp)
 104058c:	10c000a0 	cmpeqi	r3,r2,2
 1040590:	1800081e 	bne	r3,zero,10405b4 <AUDIO_DacDeemphasisControl+0x64>
 1040594:	10c000e0 	cmpeqi	r3,r2,3
 1040598:	18000a1e 	bne	r3,zero,10405c4 <AUDIO_DacDeemphasisControl+0x74>
 104059c:	10800060 	cmpeqi	r2,r2,1
 10405a0:	10000c26 	beq	r2,zero,10405d4 <AUDIO_DacDeemphasisControl+0x84>
        case DEEMPHASIS_48K: control |= ((0x03) << 1); break;
 10405a4:	e0bffd0b 	ldhu	r2,-12(fp)
 10405a8:	10800194 	ori	r2,r2,6
 10405ac:	e0bffd0d 	sth	r2,-12(fp)
 10405b0:	00000806 	br	10405d4 <AUDIO_DacDeemphasisControl+0x84>
        case DEEMPHASIS_44K1: control |= ((0x02) << 1); break;
 10405b4:	e0bffd0b 	ldhu	r2,-12(fp)
 10405b8:	10800114 	ori	r2,r2,4
 10405bc:	e0bffd0d 	sth	r2,-12(fp)
 10405c0:	00000406 	br	10405d4 <AUDIO_DacDeemphasisControl+0x84>
        case DEEMPHASIS_32K: control |= ((0x01) << 1); break;
 10405c4:	e0bffd0b 	ldhu	r2,-12(fp)
 10405c8:	10800094 	ori	r2,r2,2
 10405cc:	e0bffd0d 	sth	r2,-12(fp)
 10405d0:	0001883a 	nop
    }
    bSuccess = aduio_RegWrite(5, control);  // Left Line In: set left line in volume
 10405d4:	e0bffd0b 	ldhu	r2,-12(fp)
 10405d8:	100b883a 	mov	r5,r2
 10405dc:	01000144 	movi	r4,5
 10405e0:	1040d8c0 	call	1040d8c <aduio_RegWrite>
 10405e4:	e0bffe15 	stw	r2,-8(fp)
    return bSuccess;       
 10405e8:	e0bffe17 	ldw	r2,-8(fp)
}
 10405ec:	e037883a 	mov	sp,fp
 10405f0:	dfc00117 	ldw	ra,4(sp)
 10405f4:	df000017 	ldw	fp,0(sp)
 10405f8:	dec00204 	addi	sp,sp,8
 10405fc:	f800283a 	ret

01040600 <AUDIO_DacEnableZeroCross>:

bool AUDIO_DacEnableZeroCross(bool bEnable){
 1040600:	defffa04 	addi	sp,sp,-24
 1040604:	dfc00515 	stw	ra,20(sp)
 1040608:	df000415 	stw	fp,16(sp)
 104060c:	df000404 	addi	fp,sp,16
 1040610:	e13fff15 	stw	r4,-4(fp)
    bool bSuccess;
    alt_u16 control_l, control_r;
    alt_u16 mask;
    control_l = reg_file[2];
 1040614:	008041b4 	movhi	r2,262
 1040618:	10a8d204 	addi	r2,r2,-23736
 104061c:	1080010b 	ldhu	r2,4(r2)
 1040620:	e0bffd0d 	sth	r2,-12(fp)
    control_r = reg_file[3];
 1040624:	008041b4 	movhi	r2,262
 1040628:	10a8d204 	addi	r2,r2,-23736
 104062c:	1080018b 	ldhu	r2,6(r2)
 1040630:	e0bffd8d 	sth	r2,-10(fp)
    mask = 0x01 << 7;
 1040634:	00802004 	movi	r2,128
 1040638:	e0bffe0d 	sth	r2,-8(fp)
    if (bEnable){
 104063c:	e0bfff17 	ldw	r2,-4(fp)
 1040640:	10000926 	beq	r2,zero,1040668 <AUDIO_DacEnableZeroCross+0x68>
        control_l |= mask;
 1040644:	e0fffd0b 	ldhu	r3,-12(fp)
 1040648:	e0bffe0b 	ldhu	r2,-8(fp)
 104064c:	1884b03a 	or	r2,r3,r2
 1040650:	e0bffd0d 	sth	r2,-12(fp)
        control_r |= mask;
 1040654:	e0fffd8b 	ldhu	r3,-10(fp)
 1040658:	e0bffe0b 	ldhu	r2,-8(fp)
 104065c:	1884b03a 	or	r2,r3,r2
 1040660:	e0bffd8d 	sth	r2,-10(fp)
 1040664:	00000c06 	br	1040698 <AUDIO_DacEnableZeroCross+0x98>
    }else{
        control_l &= ~mask;
 1040668:	e0bffe0b 	ldhu	r2,-8(fp)
 104066c:	0084303a 	nor	r2,zero,r2
 1040670:	1007883a 	mov	r3,r2
 1040674:	e0bffd0b 	ldhu	r2,-12(fp)
 1040678:	1884703a 	and	r2,r3,r2
 104067c:	e0bffd0d 	sth	r2,-12(fp)
        control_r &= ~mask;
 1040680:	e0bffe0b 	ldhu	r2,-8(fp)
 1040684:	0084303a 	nor	r2,zero,r2
 1040688:	1007883a 	mov	r3,r2
 104068c:	e0bffd8b 	ldhu	r2,-10(fp)
 1040690:	1884703a 	and	r2,r3,r2
 1040694:	e0bffd8d 	sth	r2,-10(fp)
    }
    bSuccess = aduio_RegWrite(2, control_l);  // Left Line In: set left line in volume
 1040698:	e0bffd0b 	ldhu	r2,-12(fp)
 104069c:	100b883a 	mov	r5,r2
 10406a0:	01000084 	movi	r4,2
 10406a4:	1040d8c0 	call	1040d8c <aduio_RegWrite>
 10406a8:	e0bffc15 	stw	r2,-16(fp)
    if (bSuccess)
 10406ac:	e0bffc17 	ldw	r2,-16(fp)
 10406b0:	10000526 	beq	r2,zero,10406c8 <AUDIO_DacEnableZeroCross+0xc8>
        bSuccess = aduio_RegWrite(3, control_r);  // Left Line In: set left line in volume
 10406b4:	e0bffd8b 	ldhu	r2,-10(fp)
 10406b8:	100b883a 	mov	r5,r2
 10406bc:	010000c4 	movi	r4,3
 10406c0:	1040d8c0 	call	1040d8c <aduio_RegWrite>
 10406c4:	e0bffc15 	stw	r2,-16(fp)
    return bSuccess;
 10406c8:	e0bffc17 	ldw	r2,-16(fp)
}
 10406cc:	e037883a 	mov	sp,fp
 10406d0:	dfc00117 	ldw	ra,4(sp)
 10406d4:	df000017 	ldw	fp,0(sp)
 10406d8:	dec00204 	addi	sp,sp,8
 10406dc:	f800283a 	ret

010406e0 <AUDIO_DacEnableSoftMute>:

bool AUDIO_DacEnableSoftMute(bool bEnable){
 10406e0:	defffb04 	addi	sp,sp,-20
 10406e4:	dfc00415 	stw	ra,16(sp)
 10406e8:	df000315 	stw	fp,12(sp)
 10406ec:	df000304 	addi	fp,sp,12
 10406f0:	e13fff15 	stw	r4,-4(fp)
    bool bSuccess;
    alt_u16 control;
    alt_u16 mask;
    control = reg_file[5];
 10406f4:	008041b4 	movhi	r2,262
 10406f8:	10a8d204 	addi	r2,r2,-23736
 10406fc:	1080028b 	ldhu	r2,10(r2)
 1040700:	e0bffd0d 	sth	r2,-12(fp)
    mask = 0x01 << 3;
 1040704:	00800204 	movi	r2,8
 1040708:	e0bffd8d 	sth	r2,-10(fp)
    if (bEnable)
 104070c:	e0bfff17 	ldw	r2,-4(fp)
 1040710:	10000526 	beq	r2,zero,1040728 <AUDIO_DacEnableSoftMute+0x48>
        control |= mask;
 1040714:	e0fffd0b 	ldhu	r3,-12(fp)
 1040718:	e0bffd8b 	ldhu	r2,-10(fp)
 104071c:	1884b03a 	or	r2,r3,r2
 1040720:	e0bffd0d 	sth	r2,-12(fp)
 1040724:	00000606 	br	1040740 <AUDIO_DacEnableSoftMute+0x60>
    else        
        control &= ~mask;
 1040728:	e0bffd8b 	ldhu	r2,-10(fp)
 104072c:	0084303a 	nor	r2,zero,r2
 1040730:	1007883a 	mov	r3,r2
 1040734:	e0bffd0b 	ldhu	r2,-12(fp)
 1040738:	1884703a 	and	r2,r3,r2
 104073c:	e0bffd0d 	sth	r2,-12(fp)
    bSuccess = aduio_RegWrite(5, control);  // Left Line In: set left line in volume
 1040740:	e0bffd0b 	ldhu	r2,-12(fp)
 1040744:	100b883a 	mov	r5,r2
 1040748:	01000144 	movi	r4,5
 104074c:	1040d8c0 	call	1040d8c <aduio_RegWrite>
 1040750:	e0bffe15 	stw	r2,-8(fp)
    return bSuccess;      
 1040754:	e0bffe17 	ldw	r2,-8(fp)
}
 1040758:	e037883a 	mov	sp,fp
 104075c:	dfc00117 	ldw	ra,4(sp)
 1040760:	df000017 	ldw	fp,0(sp)
 1040764:	dec00204 	addi	sp,sp,8
 1040768:	f800283a 	ret

0104076c <AUDIO_MicMute>:

bool AUDIO_MicMute(bool bMute){
 104076c:	defffb04 	addi	sp,sp,-20
 1040770:	dfc00415 	stw	ra,16(sp)
 1040774:	df000315 	stw	fp,12(sp)
 1040778:	df000304 	addi	fp,sp,12
 104077c:	e13fff15 	stw	r4,-4(fp)
    bool bSuccess;
    alt_u16 control;
    alt_u16 mask;
    control = reg_file[4];
 1040780:	008041b4 	movhi	r2,262
 1040784:	10a8d204 	addi	r2,r2,-23736
 1040788:	1080020b 	ldhu	r2,8(r2)
 104078c:	e0bffd0d 	sth	r2,-12(fp)
    mask = 0x01 << 1;
 1040790:	00800084 	movi	r2,2
 1040794:	e0bffd8d 	sth	r2,-10(fp)
    if (bMute)
 1040798:	e0bfff17 	ldw	r2,-4(fp)
 104079c:	10000526 	beq	r2,zero,10407b4 <AUDIO_MicMute+0x48>
        control |= mask;
 10407a0:	e0fffd0b 	ldhu	r3,-12(fp)
 10407a4:	e0bffd8b 	ldhu	r2,-10(fp)
 10407a8:	1884b03a 	or	r2,r3,r2
 10407ac:	e0bffd0d 	sth	r2,-12(fp)
 10407b0:	00000606 	br	10407cc <AUDIO_MicMute+0x60>
    else        
        control &= ~mask;
 10407b4:	e0bffd8b 	ldhu	r2,-10(fp)
 10407b8:	0084303a 	nor	r2,zero,r2
 10407bc:	1007883a 	mov	r3,r2
 10407c0:	e0bffd0b 	ldhu	r2,-12(fp)
 10407c4:	1884703a 	and	r2,r3,r2
 10407c8:	e0bffd0d 	sth	r2,-12(fp)
    bSuccess = aduio_RegWrite(4, control);  // Left Line In: set left line in volume
 10407cc:	e0bffd0b 	ldhu	r2,-12(fp)
 10407d0:	100b883a 	mov	r5,r2
 10407d4:	01000104 	movi	r4,4
 10407d8:	1040d8c0 	call	1040d8c <aduio_RegWrite>
 10407dc:	e0bffe15 	stw	r2,-8(fp)
    return bSuccess;        
 10407e0:	e0bffe17 	ldw	r2,-8(fp)
}
 10407e4:	e037883a 	mov	sp,fp
 10407e8:	dfc00117 	ldw	ra,4(sp)
 10407ec:	df000017 	ldw	fp,0(sp)
 10407f0:	dec00204 	addi	sp,sp,8
 10407f4:	f800283a 	ret

010407f8 <AUDIO_LineInMute>:

bool AUDIO_LineInMute(bool bMute){
 10407f8:	defffa04 	addi	sp,sp,-24
 10407fc:	dfc00515 	stw	ra,20(sp)
 1040800:	df000415 	stw	fp,16(sp)
 1040804:	df000404 	addi	fp,sp,16
 1040808:	e13fff15 	stw	r4,-4(fp)
    bool bSuccess;
    alt_u16 control_l, control_r;
    alt_u16 mask;
    control_l = reg_file[0];
 104080c:	008041b4 	movhi	r2,262
 1040810:	10a8d204 	addi	r2,r2,-23736
 1040814:	1080000b 	ldhu	r2,0(r2)
 1040818:	e0bffd0d 	sth	r2,-12(fp)
    control_r = reg_file[1];
 104081c:	008041b4 	movhi	r2,262
 1040820:	10a8d204 	addi	r2,r2,-23736
 1040824:	1080008b 	ldhu	r2,2(r2)
 1040828:	e0bffd8d 	sth	r2,-10(fp)
    mask = 0x01 << 7;
 104082c:	00802004 	movi	r2,128
 1040830:	e0bffe0d 	sth	r2,-8(fp)
    if (bMute){
 1040834:	e0bfff17 	ldw	r2,-4(fp)
 1040838:	10000926 	beq	r2,zero,1040860 <AUDIO_LineInMute+0x68>
        control_l |= mask;
 104083c:	e0fffd0b 	ldhu	r3,-12(fp)
 1040840:	e0bffe0b 	ldhu	r2,-8(fp)
 1040844:	1884b03a 	or	r2,r3,r2
 1040848:	e0bffd0d 	sth	r2,-12(fp)
        control_r |= mask;
 104084c:	e0fffd8b 	ldhu	r3,-10(fp)
 1040850:	e0bffe0b 	ldhu	r2,-8(fp)
 1040854:	1884b03a 	or	r2,r3,r2
 1040858:	e0bffd8d 	sth	r2,-10(fp)
 104085c:	00000c06 	br	1040890 <AUDIO_LineInMute+0x98>
    }else{        
        control_l &= ~mask;
 1040860:	e0bffe0b 	ldhu	r2,-8(fp)
 1040864:	0084303a 	nor	r2,zero,r2
 1040868:	1007883a 	mov	r3,r2
 104086c:	e0bffd0b 	ldhu	r2,-12(fp)
 1040870:	1884703a 	and	r2,r3,r2
 1040874:	e0bffd0d 	sth	r2,-12(fp)
        control_r &= ~mask;
 1040878:	e0bffe0b 	ldhu	r2,-8(fp)
 104087c:	0084303a 	nor	r2,zero,r2
 1040880:	1007883a 	mov	r3,r2
 1040884:	e0bffd8b 	ldhu	r2,-10(fp)
 1040888:	1884703a 	and	r2,r3,r2
 104088c:	e0bffd8d 	sth	r2,-10(fp)
    }        
    bSuccess = aduio_RegWrite(0, control_l);  // Left Line In: set left line in volume
 1040890:	e0bffd0b 	ldhu	r2,-12(fp)
 1040894:	100b883a 	mov	r5,r2
 1040898:	0009883a 	mov	r4,zero
 104089c:	1040d8c0 	call	1040d8c <aduio_RegWrite>
 10408a0:	e0bffc15 	stw	r2,-16(fp)
    if (bSuccess)
 10408a4:	e0bffc17 	ldw	r2,-16(fp)
 10408a8:	10000526 	beq	r2,zero,10408c0 <AUDIO_LineInMute+0xc8>
        bSuccess = aduio_RegWrite(1, control_r);  // Left Line In: set left line in volume
 10408ac:	e0bffd8b 	ldhu	r2,-10(fp)
 10408b0:	100b883a 	mov	r5,r2
 10408b4:	01000044 	movi	r4,1
 10408b8:	1040d8c0 	call	1040d8c <aduio_RegWrite>
 10408bc:	e0bffc15 	stw	r2,-16(fp)
    return bSuccess;        
 10408c0:	e0bffc17 	ldw	r2,-16(fp)
}
 10408c4:	e037883a 	mov	sp,fp
 10408c8:	dfc00117 	ldw	ra,4(sp)
 10408cc:	df000017 	ldw	fp,0(sp)
 10408d0:	dec00204 	addi	sp,sp,8
 10408d4:	f800283a 	ret

010408d8 <AUDIO_SetInputSource>:



bool AUDIO_SetInputSource(alt_u8 InputSource){
 10408d8:	defffb04 	addi	sp,sp,-20
 10408dc:	dfc00415 	stw	ra,16(sp)
 10408e0:	df000315 	stw	fp,12(sp)
 10408e4:	df000304 	addi	fp,sp,12
 10408e8:	2005883a 	mov	r2,r4
 10408ec:	e0bfff05 	stb	r2,-4(fp)
    bool bSuccess;
    alt_u16 control;
    alt_u16 mask;
    control = reg_file[4];
 10408f0:	008041b4 	movhi	r2,262
 10408f4:	10a8d204 	addi	r2,r2,-23736
 10408f8:	1080020b 	ldhu	r2,8(r2)
 10408fc:	e0bffd0d 	sth	r2,-12(fp)
    mask = 0x01 << 2;
 1040900:	00800104 	movi	r2,4
 1040904:	e0bffd8d 	sth	r2,-10(fp)
    if (InputSource == SOURCE_MIC)
 1040908:	e0bfff03 	ldbu	r2,-4(fp)
 104090c:	1000051e 	bne	r2,zero,1040924 <AUDIO_SetInputSource+0x4c>
        control |= mask;
 1040910:	e0fffd0b 	ldhu	r3,-12(fp)
 1040914:	e0bffd8b 	ldhu	r2,-10(fp)
 1040918:	1884b03a 	or	r2,r3,r2
 104091c:	e0bffd0d 	sth	r2,-12(fp)
 1040920:	00000606 	br	104093c <AUDIO_SetInputSource+0x64>
    else        
        control &= ~mask;
 1040924:	e0bffd8b 	ldhu	r2,-10(fp)
 1040928:	0084303a 	nor	r2,zero,r2
 104092c:	1007883a 	mov	r3,r2
 1040930:	e0bffd0b 	ldhu	r2,-12(fp)
 1040934:	1884703a 	and	r2,r3,r2
 1040938:	e0bffd0d 	sth	r2,-12(fp)
    bSuccess = aduio_RegWrite(4, control);  // Left Line In: set left line in volume
 104093c:	e0bffd0b 	ldhu	r2,-12(fp)
 1040940:	100b883a 	mov	r5,r2
 1040944:	01000104 	movi	r4,4
 1040948:	1040d8c0 	call	1040d8c <aduio_RegWrite>
 104094c:	e0bffe15 	stw	r2,-8(fp)
    return bSuccess;       
 1040950:	e0bffe17 	ldw	r2,-8(fp)
}
 1040954:	e037883a 	mov	sp,fp
 1040958:	dfc00117 	ldw	ra,4(sp)
 104095c:	df000017 	ldw	fp,0(sp)
 1040960:	dec00204 	addi	sp,sp,8
 1040964:	f800283a 	ret

01040968 <AUDIO_SetSampleRate>:

// See datasheet page 39
bool AUDIO_SetSampleRate(alt_u8 SampleRate){
 1040968:	defffb04 	addi	sp,sp,-20
 104096c:	dfc00415 	stw	ra,16(sp)
 1040970:	df000315 	stw	fp,12(sp)
 1040974:	df000304 	addi	fp,sp,12
 1040978:	2005883a 	mov	r2,r4
 104097c:	e0bfff05 	stb	r2,-4(fp)
    bool bSuccess;
    alt_u16 control;
    control = 0;
 1040980:	e03ffd0d 	sth	zero,-12(fp)

    switch(SampleRate){
 1040984:	e0bfff03 	ldbu	r2,-4(fp)
 1040988:	10c001e8 	cmpgeui	r3,r2,7
 104098c:	1800211e 	bne	r3,zero,1040a14 <AUDIO_SetSampleRate+0xac>
 1040990:	100690ba 	slli	r3,r2,2
 1040994:	00804134 	movhi	r2,260
 1040998:	10826a04 	addi	r2,r2,2472
 104099c:	1885883a 	add	r2,r3,r2
 10409a0:	10800017 	ldw	r2,0(r2)
 10409a4:	1000683a 	jmp	r2
 10409a8:	010409c4 	movi	r4,4135
 10409ac:	010409cc 	andi	r4,zero,4135
 10409b0:	010409d8 	cmpnei	r4,zero,4135
 10409b4:	010409e4 	muli	r4,zero,4135
 10409b8:	010409f0 	cmpltui	r4,zero,4135
 10409bc:	010409fc 	xorhi	r4,zero,4135
 10409c0:	01040a08 	cmpgei	r4,zero,4136
         // MCLK = 18.432
        case RATE_ADC48K_DAC48K: control = (0x0) << 2; break;
 10409c4:	e03ffd0d 	sth	zero,-12(fp)
 10409c8:	00001206 	br	1040a14 <AUDIO_SetSampleRate+0xac>
        case RATE_ADC48K_DAC8K: control = (0x1) << 2; break;
 10409cc:	00800104 	movi	r2,4
 10409d0:	e0bffd0d 	sth	r2,-12(fp)
 10409d4:	00000f06 	br	1040a14 <AUDIO_SetSampleRate+0xac>
        case RATE_ADC8K_DAC48K: control = (0x2) << 2; break;
 10409d8:	00800204 	movi	r2,8
 10409dc:	e0bffd0d 	sth	r2,-12(fp)
 10409e0:	00000c06 	br	1040a14 <AUDIO_SetSampleRate+0xac>
        case RATE_ADC8K_DAC8K: control = (0x3) << 2; break;
 10409e4:	00800304 	movi	r2,12
 10409e8:	e0bffd0d 	sth	r2,-12(fp)
 10409ec:	00000906 	br	1040a14 <AUDIO_SetSampleRate+0xac>
        case RATE_ADC32K_DAC32K: control = (0x6) << 2; break;
 10409f0:	00800604 	movi	r2,24
 10409f4:	e0bffd0d 	sth	r2,-12(fp)
 10409f8:	00000606 	br	1040a14 <AUDIO_SetSampleRate+0xac>
        case RATE_ADC96K_DAC96K: control = (0x7) << 2; break;
 10409fc:	00800704 	movi	r2,28
 1040a00:	e0bffd0d 	sth	r2,-12(fp)
 1040a04:	00000306 	br	1040a14 <AUDIO_SetSampleRate+0xac>
        case RATE_ADC44K1_DAC44K1: control = (0x8) << 2; break;
 1040a08:	00800804 	movi	r2,32
 1040a0c:	e0bffd0d 	sth	r2,-12(fp)
 1040a10:	0001883a 	nop
        // MCLK = 11.2896
      //  case RATE_ADC44K1_DAC8K: control = (0x9) << 2; break;
      //  case RATE_ADC8K_DAC44K1: control = (0xA) << 2; break;
    }
    control |= 0x02; // BOSR=1 (384fs = 384*48k = 18.432M)
 1040a14:	e0bffd0b 	ldhu	r2,-12(fp)
 1040a18:	10800094 	ori	r2,r2,2
 1040a1c:	e0bffd0d 	sth	r2,-12(fp)
        
    bSuccess = aduio_RegWrite(8, control);  // Left Line In: set left line in volume
 1040a20:	e0bffd0b 	ldhu	r2,-12(fp)
 1040a24:	100b883a 	mov	r5,r2
 1040a28:	01000204 	movi	r4,8
 1040a2c:	1040d8c0 	call	1040d8c <aduio_RegWrite>
 1040a30:	e0bffe15 	stw	r2,-8(fp)
    return bSuccess;      
 1040a34:	e0bffe17 	ldw	r2,-8(fp)
}
 1040a38:	e037883a 	mov	sp,fp
 1040a3c:	dfc00117 	ldw	ra,4(sp)
 1040a40:	df000017 	ldw	fp,0(sp)
 1040a44:	dec00204 	addi	sp,sp,8
 1040a48:	f800283a 	ret

01040a4c <AUDIO_SetLineInVol>:





bool AUDIO_SetLineInVol(alt_u16 l_vol, alt_u16 r_vol){
 1040a4c:	defffa04 	addi	sp,sp,-24
 1040a50:	dfc00515 	stw	ra,20(sp)
 1040a54:	df000415 	stw	fp,16(sp)
 1040a58:	df000404 	addi	fp,sp,16
 1040a5c:	2007883a 	mov	r3,r4
 1040a60:	2805883a 	mov	r2,r5
 1040a64:	e0fffe0d 	sth	r3,-8(fp)
 1040a68:	e0bfff0d 	sth	r2,-4(fp)
    bool bSuccess;
    alt_u16 control;
    
    // left
    control = reg_file[0];
 1040a6c:	008041b4 	movhi	r2,262
 1040a70:	10a8d204 	addi	r2,r2,-23736
 1040a74:	1080000b 	ldhu	r2,0(r2)
 1040a78:	e0bffd0d 	sth	r2,-12(fp)
    control &= 0xFFE0;
 1040a7c:	e0fffd0b 	ldhu	r3,-12(fp)
 1040a80:	00bff804 	movi	r2,-32
 1040a84:	1884703a 	and	r2,r3,r2
 1040a88:	e0bffd0d 	sth	r2,-12(fp)
    control += l_vol & 0x1F;
 1040a8c:	e0bffe0b 	ldhu	r2,-8(fp)
 1040a90:	108007cc 	andi	r2,r2,31
 1040a94:	1007883a 	mov	r3,r2
 1040a98:	e0bffd0b 	ldhu	r2,-12(fp)
 1040a9c:	1885883a 	add	r2,r3,r2
 1040aa0:	e0bffd0d 	sth	r2,-12(fp)
    bSuccess = aduio_RegWrite(0, control);
 1040aa4:	e0bffd0b 	ldhu	r2,-12(fp)
 1040aa8:	100b883a 	mov	r5,r2
 1040aac:	0009883a 	mov	r4,zero
 1040ab0:	1040d8c0 	call	1040d8c <aduio_RegWrite>
 1040ab4:	e0bffc15 	stw	r2,-16(fp)
    
    if (bSuccess){
 1040ab8:	e0bffc17 	ldw	r2,-16(fp)
 1040abc:	10001326 	beq	r2,zero,1040b0c <AUDIO_SetLineInVol+0xc0>
        // right
        control = reg_file[1];
 1040ac0:	008041b4 	movhi	r2,262
 1040ac4:	10a8d204 	addi	r2,r2,-23736
 1040ac8:	1080008b 	ldhu	r2,2(r2)
 1040acc:	e0bffd0d 	sth	r2,-12(fp)
        control &= 0xFFE0;
 1040ad0:	e0fffd0b 	ldhu	r3,-12(fp)
 1040ad4:	00bff804 	movi	r2,-32
 1040ad8:	1884703a 	and	r2,r3,r2
 1040adc:	e0bffd0d 	sth	r2,-12(fp)
        control += r_vol & 0x1F;
 1040ae0:	e0bfff0b 	ldhu	r2,-4(fp)
 1040ae4:	108007cc 	andi	r2,r2,31
 1040ae8:	1007883a 	mov	r3,r2
 1040aec:	e0bffd0b 	ldhu	r2,-12(fp)
 1040af0:	1885883a 	add	r2,r3,r2
 1040af4:	e0bffd0d 	sth	r2,-12(fp)
        bSuccess = aduio_RegWrite(1, control);        
 1040af8:	e0bffd0b 	ldhu	r2,-12(fp)
 1040afc:	100b883a 	mov	r5,r2
 1040b00:	01000044 	movi	r4,1
 1040b04:	1040d8c0 	call	1040d8c <aduio_RegWrite>
 1040b08:	e0bffc15 	stw	r2,-16(fp)
    }
    
    AUDIO_DEBUG(("[AUDIO] set Line-In vol(%d,%d) %s\r\n", l_vol, r_vol, bSuccess?"success":"fail"));        
 1040b0c:	e0fffe0b 	ldhu	r3,-8(fp)
 1040b10:	e13fff0b 	ldhu	r4,-4(fp)
 1040b14:	e0bffc17 	ldw	r2,-16(fp)
 1040b18:	10000326 	beq	r2,zero,1040b28 <AUDIO_SetLineInVol+0xdc>
 1040b1c:	00804174 	movhi	r2,261
 1040b20:	1099b204 	addi	r2,r2,26312
 1040b24:	00000206 	br	1040b30 <AUDIO_SetLineInVol+0xe4>
 1040b28:	00804174 	movhi	r2,261
 1040b2c:	1099b404 	addi	r2,r2,26320
 1040b30:	100f883a 	mov	r7,r2
 1040b34:	200d883a 	mov	r6,r4
 1040b38:	180b883a 	mov	r5,r3
 1040b3c:	01004174 	movhi	r4,261
 1040b40:	2119bc04 	addi	r4,r4,26352
 1040b44:	1040fe00 	call	1040fe0 <myprintf>
    return bSuccess;
 1040b48:	e0bffc17 	ldw	r2,-16(fp)
}
 1040b4c:	e037883a 	mov	sp,fp
 1040b50:	dfc00117 	ldw	ra,4(sp)
 1040b54:	df000017 	ldw	fp,0(sp)
 1040b58:	dec00204 	addi	sp,sp,8
 1040b5c:	f800283a 	ret

01040b60 <AUDIO_SetLineOutVol>:

bool AUDIO_SetLineOutVol(alt_u16 l_vol, alt_u16 r_vol){
 1040b60:	defffa04 	addi	sp,sp,-24
 1040b64:	dfc00515 	stw	ra,20(sp)
 1040b68:	df000415 	stw	fp,16(sp)
 1040b6c:	df000404 	addi	fp,sp,16
 1040b70:	2007883a 	mov	r3,r4
 1040b74:	2805883a 	mov	r2,r5
 1040b78:	e0fffe0d 	sth	r3,-8(fp)
 1040b7c:	e0bfff0d 	sth	r2,-4(fp)
    bool bSuccess;
    alt_u16 control;

 
    // left
    control = reg_file[2];
 1040b80:	008041b4 	movhi	r2,262
 1040b84:	10a8d204 	addi	r2,r2,-23736
 1040b88:	1080010b 	ldhu	r2,4(r2)
 1040b8c:	e0bffd0d 	sth	r2,-12(fp)
    control &= 0xFF80;
 1040b90:	e0fffd0b 	ldhu	r3,-12(fp)
 1040b94:	00bfe004 	movi	r2,-128
 1040b98:	1884703a 	and	r2,r3,r2
 1040b9c:	e0bffd0d 	sth	r2,-12(fp)
    control += l_vol & 0x7F;
 1040ba0:	e0bffe0b 	ldhu	r2,-8(fp)
 1040ba4:	10801fcc 	andi	r2,r2,127
 1040ba8:	1007883a 	mov	r3,r2
 1040bac:	e0bffd0b 	ldhu	r2,-12(fp)
 1040bb0:	1885883a 	add	r2,r3,r2
 1040bb4:	e0bffd0d 	sth	r2,-12(fp)
    bSuccess = aduio_RegWrite(2, control);
 1040bb8:	e0bffd0b 	ldhu	r2,-12(fp)
 1040bbc:	100b883a 	mov	r5,r2
 1040bc0:	01000084 	movi	r4,2
 1040bc4:	1040d8c0 	call	1040d8c <aduio_RegWrite>
 1040bc8:	e0bffc15 	stw	r2,-16(fp)
    
    if (bSuccess){
 1040bcc:	e0bffc17 	ldw	r2,-16(fp)
 1040bd0:	10001326 	beq	r2,zero,1040c20 <AUDIO_SetLineOutVol+0xc0>
        // right
        control = reg_file[3];
 1040bd4:	008041b4 	movhi	r2,262
 1040bd8:	10a8d204 	addi	r2,r2,-23736
 1040bdc:	1080018b 	ldhu	r2,6(r2)
 1040be0:	e0bffd0d 	sth	r2,-12(fp)
        control &= 0xFF80;
 1040be4:	e0fffd0b 	ldhu	r3,-12(fp)
 1040be8:	00bfe004 	movi	r2,-128
 1040bec:	1884703a 	and	r2,r3,r2
 1040bf0:	e0bffd0d 	sth	r2,-12(fp)
        control += r_vol & 0x7F;
 1040bf4:	e0bfff0b 	ldhu	r2,-4(fp)
 1040bf8:	10801fcc 	andi	r2,r2,127
 1040bfc:	1007883a 	mov	r3,r2
 1040c00:	e0bffd0b 	ldhu	r2,-12(fp)
 1040c04:	1885883a 	add	r2,r3,r2
 1040c08:	e0bffd0d 	sth	r2,-12(fp)
        bSuccess = aduio_RegWrite(3, control);        
 1040c0c:	e0bffd0b 	ldhu	r2,-12(fp)
 1040c10:	100b883a 	mov	r5,r2
 1040c14:	010000c4 	movi	r4,3
 1040c18:	1040d8c0 	call	1040d8c <aduio_RegWrite>
 1040c1c:	e0bffc15 	stw	r2,-16(fp)
    }    
    
    AUDIO_DEBUG(("[AUDIO] set Line-Out vol(%d,%d) %s\r\n", l_vol, r_vol, bSuccess?"success":"fail"));
 1040c20:	e0fffe0b 	ldhu	r3,-8(fp)
 1040c24:	e13fff0b 	ldhu	r4,-4(fp)
 1040c28:	e0bffc17 	ldw	r2,-16(fp)
 1040c2c:	10000326 	beq	r2,zero,1040c3c <AUDIO_SetLineOutVol+0xdc>
 1040c30:	00804174 	movhi	r2,261
 1040c34:	1099b204 	addi	r2,r2,26312
 1040c38:	00000206 	br	1040c44 <AUDIO_SetLineOutVol+0xe4>
 1040c3c:	00804174 	movhi	r2,261
 1040c40:	1099b404 	addi	r2,r2,26320
 1040c44:	100f883a 	mov	r7,r2
 1040c48:	200d883a 	mov	r6,r4
 1040c4c:	180b883a 	mov	r5,r3
 1040c50:	01004174 	movhi	r4,261
 1040c54:	2119c504 	addi	r4,r4,26388
 1040c58:	1040fe00 	call	1040fe0 <myprintf>
    
    return bSuccess;
 1040c5c:	e0bffc17 	ldw	r2,-16(fp)
}
 1040c60:	e037883a 	mov	sp,fp
 1040c64:	dfc00117 	ldw	ra,4(sp)
 1040c68:	df000017 	ldw	fp,0(sp)
 1040c6c:	dec00204 	addi	sp,sp,8
 1040c70:	f800283a 	ret

01040c74 <AUDIO_EnableByPass>:


bool AUDIO_EnableByPass(bool bEnable){
 1040c74:	defffb04 	addi	sp,sp,-20
 1040c78:	dfc00415 	stw	ra,16(sp)
 1040c7c:	df000315 	stw	fp,12(sp)
 1040c80:	df000304 	addi	fp,sp,12
 1040c84:	e13fff15 	stw	r4,-4(fp)
    bool bSuccess;
    alt_u16 control;
    alt_u16 mask;
    control = reg_file[4];
 1040c88:	008041b4 	movhi	r2,262
 1040c8c:	10a8d204 	addi	r2,r2,-23736
 1040c90:	1080020b 	ldhu	r2,8(r2)
 1040c94:	e0bffd0d 	sth	r2,-12(fp)
    mask = 0x01 << 3;
 1040c98:	00800204 	movi	r2,8
 1040c9c:	e0bffd8d 	sth	r2,-10(fp)
    if (bEnable)
 1040ca0:	e0bfff17 	ldw	r2,-4(fp)
 1040ca4:	10000526 	beq	r2,zero,1040cbc <AUDIO_EnableByPass+0x48>
        control |= mask;
 1040ca8:	e0fffd0b 	ldhu	r3,-12(fp)
 1040cac:	e0bffd8b 	ldhu	r2,-10(fp)
 1040cb0:	1884b03a 	or	r2,r3,r2
 1040cb4:	e0bffd0d 	sth	r2,-12(fp)
 1040cb8:	00000606 	br	1040cd4 <AUDIO_EnableByPass+0x60>
    else        
        control &= ~mask;
 1040cbc:	e0bffd8b 	ldhu	r2,-10(fp)
 1040cc0:	0084303a 	nor	r2,zero,r2
 1040cc4:	1007883a 	mov	r3,r2
 1040cc8:	e0bffd0b 	ldhu	r2,-12(fp)
 1040ccc:	1884703a 	and	r2,r3,r2
 1040cd0:	e0bffd0d 	sth	r2,-12(fp)
    bSuccess = aduio_RegWrite(4, control); 
 1040cd4:	e0bffd0b 	ldhu	r2,-12(fp)
 1040cd8:	100b883a 	mov	r5,r2
 1040cdc:	01000104 	movi	r4,4
 1040ce0:	1040d8c0 	call	1040d8c <aduio_RegWrite>
 1040ce4:	e0bffe15 	stw	r2,-8(fp)
    return bSuccess;  	
 1040ce8:	e0bffe17 	ldw	r2,-8(fp)
}
 1040cec:	e037883a 	mov	sp,fp
 1040cf0:	dfc00117 	ldw	ra,4(sp)
 1040cf4:	df000017 	ldw	fp,0(sp)
 1040cf8:	dec00204 	addi	sp,sp,8
 1040cfc:	f800283a 	ret

01040d00 <AUDIO_EnableSiteTone>:

bool AUDIO_EnableSiteTone(bool bEnable){
 1040d00:	defffb04 	addi	sp,sp,-20
 1040d04:	dfc00415 	stw	ra,16(sp)
 1040d08:	df000315 	stw	fp,12(sp)
 1040d0c:	df000304 	addi	fp,sp,12
 1040d10:	e13fff15 	stw	r4,-4(fp)
    bool bSuccess;
    alt_u16 control;
    alt_u16 mask;
    control = reg_file[4];
 1040d14:	008041b4 	movhi	r2,262
 1040d18:	10a8d204 	addi	r2,r2,-23736
 1040d1c:	1080020b 	ldhu	r2,8(r2)
 1040d20:	e0bffd0d 	sth	r2,-12(fp)
    mask = 0x01 << 5;
 1040d24:	00800804 	movi	r2,32
 1040d28:	e0bffd8d 	sth	r2,-10(fp)
    if (bEnable)
 1040d2c:	e0bfff17 	ldw	r2,-4(fp)
 1040d30:	10000526 	beq	r2,zero,1040d48 <AUDIO_EnableSiteTone+0x48>
        control |= mask;
 1040d34:	e0fffd0b 	ldhu	r3,-12(fp)
 1040d38:	e0bffd8b 	ldhu	r2,-10(fp)
 1040d3c:	1884b03a 	or	r2,r3,r2
 1040d40:	e0bffd0d 	sth	r2,-12(fp)
 1040d44:	00000606 	br	1040d60 <AUDIO_EnableSiteTone+0x60>
    else        
        control &= ~mask;
 1040d48:	e0bffd8b 	ldhu	r2,-10(fp)
 1040d4c:	0084303a 	nor	r2,zero,r2
 1040d50:	1007883a 	mov	r3,r2
 1040d54:	e0bffd0b 	ldhu	r2,-12(fp)
 1040d58:	1884703a 	and	r2,r3,r2
 1040d5c:	e0bffd0d 	sth	r2,-12(fp)
    bSuccess = aduio_RegWrite(4, control); 
 1040d60:	e0bffd0b 	ldhu	r2,-12(fp)
 1040d64:	100b883a 	mov	r5,r2
 1040d68:	01000104 	movi	r4,4
 1040d6c:	1040d8c0 	call	1040d8c <aduio_RegWrite>
 1040d70:	e0bffe15 	stw	r2,-8(fp)
    return bSuccess;        
 1040d74:	e0bffe17 	ldw	r2,-8(fp)
}
 1040d78:	e037883a 	mov	sp,fp
 1040d7c:	dfc00117 	ldw	ra,4(sp)
 1040d80:	df000017 	ldw	fp,0(sp)
 1040d84:	dec00204 	addi	sp,sp,8
 1040d88:	f800283a 	ret

01040d8c <aduio_RegWrite>:

/////////////////////////////////////////////////////////////////////////
///////////// Interla function body ////////////////////////////////////
/////////////////////////////////////////////////////////////////////////

bool aduio_RegWrite(alt_u8 reg_index, alt_u16 data16){
 1040d8c:	defff904 	addi	sp,sp,-28
 1040d90:	dfc00615 	stw	ra,24(sp)
 1040d94:	df000515 	stw	fp,20(sp)
 1040d98:	df000504 	addi	fp,sp,20
 1040d9c:	2007883a 	mov	r3,r4
 1040da0:	2805883a 	mov	r2,r5
 1040da4:	e0fffe05 	stb	r3,-8(fp)
 1040da8:	e0bfff0d 	sth	r2,-4(fp)
    bool bSuccess;
    alt_u8 data, control;
    if (reg_index <= 10)
 1040dac:	e0bffe03 	ldbu	r2,-8(fp)
 1040db0:	108002e8 	cmpgeui	r2,r2,11
 1040db4:	1000071e 	bne	r2,zero,1040dd4 <aduio_RegWrite+0x48>
        reg_file[reg_index] = data16;
 1040db8:	e0fffe03 	ldbu	r3,-8(fp)
 1040dbc:	008041b4 	movhi	r2,262
 1040dc0:	10a8d204 	addi	r2,r2,-23736
 1040dc4:	18c7883a 	add	r3,r3,r3
 1040dc8:	10c5883a 	add	r2,r2,r3
 1040dcc:	e0ffff0b 	ldhu	r3,-4(fp)
 1040dd0:	10c0000d 	sth	r3,0(r2)
    data = data16 & 0xFF;
 1040dd4:	e0bfff0b 	ldhu	r2,-4(fp)
 1040dd8:	e0bffc05 	stb	r2,-16(fp)
    control = (reg_index << 1) & 0xFE;
 1040ddc:	e0bffe03 	ldbu	r2,-8(fp)
 1040de0:	1085883a 	add	r2,r2,r2
 1040de4:	e0bffc45 	stb	r2,-15(fp)
    control |= ((data16 >> 8) & 0x01);
 1040de8:	e0bfff0b 	ldhu	r2,-4(fp)
 1040dec:	1004d23a 	srli	r2,r2,8
 1040df0:	1080004c 	andi	r2,r2,1
 1040df4:	1007883a 	mov	r3,r2
 1040df8:	e0bffc43 	ldbu	r2,-15(fp)
 1040dfc:	1884b03a 	or	r2,r3,r2
 1040e00:	e0bffc45 	stb	r2,-15(fp)
    //AUDIO_DEBUG(("[AUDIO] set audio reg[%02d] = %04Xh\r\n", reg_index, data16));
    bSuccess = I2C_Write(I2C_SCL_BASE, I2C_SDA_BASE, I2C_AUDIO_ADDR, control, data);
 1040e04:	e0fffc43 	ldbu	r3,-15(fp)
 1040e08:	e0bffc03 	ldbu	r2,-16(fp)
 1040e0c:	d8800015 	stw	r2,0(sp)
 1040e10:	180f883a 	mov	r7,r3
 1040e14:	01800d04 	movi	r6,52
 1040e18:	000b883a 	mov	r5,zero
 1040e1c:	01000404 	movi	r4,16
 1040e20:	10411640 	call	1041164 <I2C_Write>
 1040e24:	e0bffd15 	stw	r2,-12(fp)
    if (!bSuccess) 
 1040e28:	e0bffd17 	ldw	r2,-12(fp)
 1040e2c:	1000031e 	bne	r2,zero,1040e3c <aduio_RegWrite+0xb0>
        AUDIO_DEBUG(("[AUDIO] write reg fail!!!!\r\n"));
 1040e30:	01004174 	movhi	r4,261
 1040e34:	2119cf04 	addi	r4,r4,26428
 1040e38:	1040fe00 	call	1040fe0 <myprintf>
    usleep(50*1000);  // wait audio chip read        
 1040e3c:	0130d414 	movui	r4,50000
 1040e40:	10545b80 	call	10545b8 <usleep>
    return bSuccess;        
 1040e44:	e0bffd17 	ldw	r2,-12(fp)
}
 1040e48:	e037883a 	mov	sp,fp
 1040e4c:	dfc00117 	ldw	ra,4(sp)
 1040e50:	df000017 	ldw	fp,0(sp)
 1040e54:	dec00204 	addi	sp,sp,8
 1040e58:	f800283a 	ret

01040e5c <AUDIO_DacFifoNotFull>:

/////////////////////////////////////////////////////////////////////////
///////////// Audio Play & Recor ////////////////////////////////////////
/////////////////////////////////////////////////////////////////////////
// check whether the dac-fifo is full.
bool AUDIO_DacFifoNotFull(void){
 1040e5c:	defffe04 	addi	sp,sp,-8
 1040e60:	df000115 	stw	fp,4(sp)
 1040e64:	df000104 	addi	fp,sp,4
    bool bReady;
    bReady = AUDIO_DAC_FULL()?FALSE:TRUE;
 1040e68:	00804234 	movhi	r2,264
 1040e6c:	10880d04 	addi	r2,r2,8244
 1040e70:	10800037 	ldwio	r2,0(r2)
 1040e74:	1080004c 	andi	r2,r2,1
 1040e78:	1005003a 	cmpeq	r2,r2,zero
 1040e7c:	10803fcc 	andi	r2,r2,255
 1040e80:	e0bfff15 	stw	r2,-4(fp)
    return bReady;
 1040e84:	e0bfff17 	ldw	r2,-4(fp)
}
 1040e88:	e037883a 	mov	sp,fp
 1040e8c:	df000017 	ldw	fp,0(sp)
 1040e90:	dec00104 	addi	sp,sp,4
 1040e94:	f800283a 	ret

01040e98 <AUDIO_DacFifoSetData>:

// call AUDIO_PlayIsReady to make sure the fifo is not full before call this function 
void AUDIO_DacFifoSetData(short ch_left, short ch_right){
 1040e98:	defffd04 	addi	sp,sp,-12
 1040e9c:	df000215 	stw	fp,8(sp)
 1040ea0:	df000204 	addi	fp,sp,8
 1040ea4:	2007883a 	mov	r3,r4
 1040ea8:	2805883a 	mov	r2,r5
 1040eac:	e0fffe0d 	sth	r3,-8(fp)
 1040eb0:	e0bfff0d 	sth	r2,-4(fp)
    AUDIO_DAC_WRITE_L(ch_left);
 1040eb4:	e0fffe0f 	ldh	r3,-8(fp)
 1040eb8:	00804234 	movhi	r2,264
 1040ebc:	10880804 	addi	r2,r2,8224
 1040ec0:	10c00035 	stwio	r3,0(r2)
    AUDIO_DAC_WRITE_R(ch_right);
 1040ec4:	e0ffff0f 	ldh	r3,-4(fp)
 1040ec8:	00804234 	movhi	r2,264
 1040ecc:	10880904 	addi	r2,r2,8228
 1040ed0:	10c00035 	stwio	r3,0(r2)
}
 1040ed4:	0001883a 	nop
 1040ed8:	e037883a 	mov	sp,fp
 1040edc:	df000017 	ldw	fp,0(sp)
 1040ee0:	dec00104 	addi	sp,sp,4
 1040ee4:	f800283a 	ret

01040ee8 <AUDIO_AdcFifoNotEmpty>:

// wheck whether there is data available in adc-fifo
bool AUDIO_AdcFifoNotEmpty(void){
 1040ee8:	defffe04 	addi	sp,sp,-8
 1040eec:	df000115 	stw	fp,4(sp)
 1040ef0:	df000104 	addi	fp,sp,4
    bool bReady;
    bReady = AUDIO_ADC_EMPTY()?FALSE:TRUE;
 1040ef4:	00804234 	movhi	r2,264
 1040ef8:	10880d04 	addi	r2,r2,8244
 1040efc:	10800037 	ldwio	r2,0(r2)
 1040f00:	1080008c 	andi	r2,r2,2
 1040f04:	1005003a 	cmpeq	r2,r2,zero
 1040f08:	10803fcc 	andi	r2,r2,255
 1040f0c:	e0bfff15 	stw	r2,-4(fp)
    return bReady;
 1040f10:	e0bfff17 	ldw	r2,-4(fp)
}
 1040f14:	e037883a 	mov	sp,fp
 1040f18:	df000017 	ldw	fp,0(sp)
 1040f1c:	dec00104 	addi	sp,sp,4
 1040f20:	f800283a 	ret

01040f24 <AUDIO_AdcFifoGetData>:


// make sure the data is available before call this fucntion
void AUDIO_AdcFifoGetData(short *pch_left, short *pch_right){
 1040f24:	defffd04 	addi	sp,sp,-12
 1040f28:	df000215 	stw	fp,8(sp)
 1040f2c:	df000204 	addi	fp,sp,8
 1040f30:	e13ffe15 	stw	r4,-8(fp)
 1040f34:	e17fff15 	stw	r5,-4(fp)
    *pch_left = AUDIO_ADC_READ_L();
 1040f38:	00804234 	movhi	r2,264
 1040f3c:	10880a04 	addi	r2,r2,8232
 1040f40:	10800037 	ldwio	r2,0(r2)
 1040f44:	1007883a 	mov	r3,r2
 1040f48:	e0bffe17 	ldw	r2,-8(fp)
 1040f4c:	10c0000d 	sth	r3,0(r2)
    *pch_right = AUDIO_ADC_READ_R();
 1040f50:	00804234 	movhi	r2,264
 1040f54:	10880b04 	addi	r2,r2,8236
 1040f58:	10800037 	ldwio	r2,0(r2)
 1040f5c:	1007883a 	mov	r3,r2
 1040f60:	e0bfff17 	ldw	r2,-4(fp)
 1040f64:	10c0000d 	sth	r3,0(r2)
    
}
 1040f68:	0001883a 	nop
 1040f6c:	e037883a 	mov	sp,fp
 1040f70:	df000017 	ldw	fp,0(sp)
 1040f74:	dec00104 	addi	sp,sp,4
 1040f78:	f800283a 	ret

01040f7c <AUDIO_FifoClear>:

void AUDIO_FifoClear(void){
 1040f7c:	deffff04 	addi	sp,sp,-4
 1040f80:	df000015 	stw	fp,0(sp)
 1040f84:	d839883a 	mov	fp,sp
    AUDIO_FIFO_CLEAR();
 1040f88:	00c00044 	movi	r3,1
 1040f8c:	00804234 	movhi	r2,264
 1040f90:	10880c04 	addi	r2,r2,8240
 1040f94:	10c00035 	stwio	r3,0(r2)
}
 1040f98:	0001883a 	nop
 1040f9c:	e037883a 	mov	sp,fp
 1040fa0:	df000017 	ldw	fp,0(sp)
 1040fa4:	dec00104 	addi	sp,sp,4
 1040fa8:	f800283a 	ret

01040fac <debug_output>:
    if (!UART_IsOpened())
        UART_Open();
    UART_WriteString(pMessage);  // UART debug
}
#else
void debug_output(char *pMessage){
 1040fac:	defffd04 	addi	sp,sp,-12
 1040fb0:	dfc00215 	stw	ra,8(sp)
 1040fb4:	df000115 	stw	fp,4(sp)
 1040fb8:	df000104 	addi	fp,sp,4
 1040fbc:	e13fff15 	stw	r4,-4(fp)
    printf(pMessage);
 1040fc0:	e13fff17 	ldw	r4,-4(fp)
 1040fc4:	1045a840 	call	1045a84 <printf>
}
 1040fc8:	0001883a 	nop
 1040fcc:	e037883a 	mov	sp,fp
 1040fd0:	dfc00117 	ldw	ra,4(sp)
 1040fd4:	df000017 	ldw	fp,0(sp)
 1040fd8:	dec00204 	addi	sp,sp,8
 1040fdc:	f800283a 	ret

01040fe0 <myprintf>:

#endif


int myprintf(char *format, ...){
 1040fe0:	deff7804 	addi	sp,sp,-544
 1040fe4:	dfc08415 	stw	ra,528(sp)
 1040fe8:	df008315 	stw	fp,524(sp)
 1040fec:	df008304 	addi	fp,sp,524
 1040ff0:	e13fff15 	stw	r4,-4(fp)
 1040ff4:	e1400215 	stw	r5,8(fp)
 1040ff8:	e1800315 	stw	r6,12(fp)
 1040ffc:	e1c00415 	stw	r7,16(fp)
    int rc;
    char szText[512];
    
    va_list paramList;
    va_start(paramList, format);
 1041000:	e0800204 	addi	r2,fp,8
 1041004:	e0bffe15 	stw	r2,-8(fp)
    rc = vsnprintf(szText, 512, format, paramList);
 1041008:	e0fffe17 	ldw	r3,-8(fp)
 104100c:	e0bf7e04 	addi	r2,fp,-520
 1041010:	180f883a 	mov	r7,r3
 1041014:	e1bfff17 	ldw	r6,-4(fp)
 1041018:	01408004 	movi	r5,512
 104101c:	1009883a 	mov	r4,r2
 1041020:	104a2880 	call	104a288 <vsnprintf>
 1041024:	e0bf7d15 	stw	r2,-524(fp)
    va_end(paramList);
    
    debug_output(szText);
 1041028:	e0bf7e04 	addi	r2,fp,-520
 104102c:	1009883a 	mov	r4,r2
 1041030:	1040fac0 	call	1040fac <debug_output>

    return rc;    
 1041034:	e0bf7d17 	ldw	r2,-524(fp)
}
 1041038:	e037883a 	mov	sp,fp
 104103c:	dfc00117 	ldw	ra,4(sp)
 1041040:	df000017 	ldw	fp,0(sp)
 1041044:	dec00504 	addi	sp,sp,20
 1041048:	f800283a 	ret

0104104c <myprintf_hex_array>:


int myprintf_hex_array(unsigned char *pHex, int len){
 104104c:	defff704 	addi	sp,sp,-36
 1041050:	dfc00815 	stw	ra,32(sp)
 1041054:	df000715 	stw	fp,28(sp)
 1041058:	df000704 	addi	fp,sp,28
 104105c:	e13ffe15 	stw	r4,-8(fp)
 1041060:	e17fff15 	stw	r5,-4(fp)
    int i;
    unsigned char szText[16];
    for(i=0;i<len;i++){
 1041064:	e03ff915 	stw	zero,-28(fp)
 1041068:	00001106 	br	10410b0 <myprintf_hex_array+0x64>
        sprintf(szText, "[%02X]", *(pHex+i));
 104106c:	e0bff917 	ldw	r2,-28(fp)
 1041070:	e0fffe17 	ldw	r3,-8(fp)
 1041074:	1885883a 	add	r2,r3,r2
 1041078:	10800003 	ldbu	r2,0(r2)
 104107c:	10c03fcc 	andi	r3,r2,255
 1041080:	e0bffa04 	addi	r2,fp,-24
 1041084:	180d883a 	mov	r6,r3
 1041088:	01404174 	movhi	r5,261
 104108c:	2959d704 	addi	r5,r5,26460
 1041090:	1009883a 	mov	r4,r2
 1041094:	1045bec0 	call	1045bec <sprintf>
        DEBUG((szText));
 1041098:	e0bffa04 	addi	r2,fp,-24
 104109c:	1009883a 	mov	r4,r2
 10410a0:	1040fe00 	call	1040fe0 <myprintf>


int myprintf_hex_array(unsigned char *pHex, int len){
    int i;
    unsigned char szText[16];
    for(i=0;i<len;i++){
 10410a4:	e0bff917 	ldw	r2,-28(fp)
 10410a8:	10800044 	addi	r2,r2,1
 10410ac:	e0bff915 	stw	r2,-28(fp)
 10410b0:	e0fff917 	ldw	r3,-28(fp)
 10410b4:	e0bfff17 	ldw	r2,-4(fp)
 10410b8:	18bfec16 	blt	r3,r2,104106c <__alt_data_end+0xfffc106c>
        sprintf(szText, "[%02X]", *(pHex+i));
        DEBUG((szText));
    }
    return len;
 10410bc:	e0bfff17 	ldw	r2,-4(fp)
}
 10410c0:	e037883a 	mov	sp,fp
 10410c4:	dfc00117 	ldw	ra,4(sp)
 10410c8:	df000017 	ldw	fp,0(sp)
 10410cc:	dec00204 	addi	sp,sp,8
 10410d0:	f800283a 	ret

010410d4 <myprintf_dword_array>:

int  myprintf_dword_array(unsigned int *pArray, int nElementCount){
 10410d4:	defff704 	addi	sp,sp,-36
 10410d8:	dfc00815 	stw	ra,32(sp)
 10410dc:	df000715 	stw	fp,28(sp)
 10410e0:	df000704 	addi	fp,sp,28
 10410e4:	e13ffe15 	stw	r4,-8(fp)
 10410e8:	e17fff15 	stw	r5,-4(fp)
    int i;
    char szText[16];
    for(i=0;i<nElementCount;i++){
 10410ec:	e03ff915 	stw	zero,-28(fp)
 10410f0:	00001306 	br	1041140 <myprintf_dword_array+0x6c>
        sprintf(szText, "[%08X]", *(pArray+i));
 10410f4:	e0bff917 	ldw	r2,-28(fp)
 10410f8:	1085883a 	add	r2,r2,r2
 10410fc:	1085883a 	add	r2,r2,r2
 1041100:	1007883a 	mov	r3,r2
 1041104:	e0bffe17 	ldw	r2,-8(fp)
 1041108:	10c5883a 	add	r2,r2,r3
 104110c:	10c00017 	ldw	r3,0(r2)
 1041110:	e0bffa04 	addi	r2,fp,-24
 1041114:	180d883a 	mov	r6,r3
 1041118:	01404174 	movhi	r5,261
 104111c:	2959d904 	addi	r5,r5,26468
 1041120:	1009883a 	mov	r4,r2
 1041124:	1045bec0 	call	1045bec <sprintf>
        DEBUG((szText));
 1041128:	e0bffa04 	addi	r2,fp,-24
 104112c:	1009883a 	mov	r4,r2
 1041130:	1040fe00 	call	1040fe0 <myprintf>
}

int  myprintf_dword_array(unsigned int *pArray, int nElementCount){
    int i;
    char szText[16];
    for(i=0;i<nElementCount;i++){
 1041134:	e0bff917 	ldw	r2,-28(fp)
 1041138:	10800044 	addi	r2,r2,1
 104113c:	e0bff915 	stw	r2,-28(fp)
 1041140:	e0fff917 	ldw	r3,-28(fp)
 1041144:	e0bfff17 	ldw	r2,-4(fp)
 1041148:	18bfea16 	blt	r3,r2,10410f4 <__alt_data_end+0xfffc10f4>
        sprintf(szText, "[%08X]", *(pArray+i));
        DEBUG((szText));
    }
    return nElementCount;
 104114c:	e0bfff17 	ldw	r2,-4(fp)
}
 1041150:	e037883a 	mov	sp,fp
 1041154:	dfc00117 	ldw	ra,4(sp)
 1041158:	df000017 	ldw	fp,0(sp)
 104115c:	dec00204 	addi	sp,sp,8
 1041160:	f800283a 	ret

01041164 <I2C_Write>:
bool i2c_write(alt_u32 clk_base, alt_u32 data_base, alt_u8 Data);
void i2c_read(alt_u32 clk_base, alt_u32 data_base, alt_u8 *pData, bool bAck);



bool I2C_Write(alt_u32 clk_base, alt_u32 data_base, alt_8 DeviceAddr, alt_u8 ControlAddr, alt_u8 ControlData){
 1041164:	defff804 	addi	sp,sp,-32
 1041168:	dfc00715 	stw	ra,28(sp)
 104116c:	df000615 	stw	fp,24(sp)
 1041170:	df000604 	addi	fp,sp,24
 1041174:	e13ffb15 	stw	r4,-20(fp)
 1041178:	e17ffc15 	stw	r5,-16(fp)
 104117c:	3009883a 	mov	r4,r6
 1041180:	3807883a 	mov	r3,r7
 1041184:	e0800217 	ldw	r2,8(fp)
 1041188:	e13ffd05 	stb	r4,-12(fp)
 104118c:	e0fffe05 	stb	r3,-8(fp)
 1041190:	e0bfff05 	stb	r2,-4(fp)
    bool bSuccess = TRUE;
 1041194:	00800044 	movi	r2,1
 1041198:	e0bffa15 	stw	r2,-24(fp)
    //alt_u8 DeviceAddr;

    // device id
    //DeviceAddr = HMB_E2_I2C_ID;

    i2c_start(clk_base, data_base);
 104119c:	e17ffc17 	ldw	r5,-16(fp)
 10411a0:	e13ffb17 	ldw	r4,-20(fp)
 10411a4:	10415000 	call	1041500 <i2c_start>
    if (!i2c_write(clk_base, data_base, DeviceAddr)){  // send ID
 10411a8:	e0bffd03 	ldbu	r2,-12(fp)
 10411ac:	10803fcc 	andi	r2,r2,255
 10411b0:	100d883a 	mov	r6,r2
 10411b4:	e17ffc17 	ldw	r5,-16(fp)
 10411b8:	e13ffb17 	ldw	r4,-20(fp)
 10411bc:	10416040 	call	1041604 <i2c_write>
 10411c0:	1000041e 	bne	r2,zero,10411d4 <I2C_Write+0x70>
        bSuccess = FALSE;
 10411c4:	e03ffa15 	stw	zero,-24(fp)
        I2C_DEBUG(("I2C HMB_E2 Fail: Address NACK!\n"));
 10411c8:	01004174 	movhi	r4,261
 10411cc:	2119db04 	addi	r4,r4,26476
 10411d0:	1040fe00 	call	1040fe0 <myprintf>
    }
    if (bSuccess && !i2c_write(clk_base, data_base, ControlAddr)){ // send sub-address
 10411d4:	e0bffa17 	ldw	r2,-24(fp)
 10411d8:	10000a26 	beq	r2,zero,1041204 <I2C_Write+0xa0>
 10411dc:	e0bffe03 	ldbu	r2,-8(fp)
 10411e0:	100d883a 	mov	r6,r2
 10411e4:	e17ffc17 	ldw	r5,-16(fp)
 10411e8:	e13ffb17 	ldw	r4,-20(fp)
 10411ec:	10416040 	call	1041604 <i2c_write>
 10411f0:	1000041e 	bne	r2,zero,1041204 <I2C_Write+0xa0>
        bSuccess = FALSE;
 10411f4:	e03ffa15 	stw	zero,-24(fp)
        I2C_DEBUG(("I2C HMB_E2 Fail: SubAddress NACK!\n"));
 10411f8:	01004174 	movhi	r4,261
 10411fc:	2119e304 	addi	r4,r4,26508
 1041200:	1040fe00 	call	1040fe0 <myprintf>
    }
    if (bSuccess && !i2c_write(clk_base, data_base, ControlData)){
 1041204:	e0bffa17 	ldw	r2,-24(fp)
 1041208:	10000a26 	beq	r2,zero,1041234 <I2C_Write+0xd0>
 104120c:	e0bfff03 	ldbu	r2,-4(fp)
 1041210:	100d883a 	mov	r6,r2
 1041214:	e17ffc17 	ldw	r5,-16(fp)
 1041218:	e13ffb17 	ldw	r4,-20(fp)
 104121c:	10416040 	call	1041604 <i2c_write>
 1041220:	1000041e 	bne	r2,zero,1041234 <I2C_Write+0xd0>
        bSuccess = FALSE;
 1041224:	e03ffa15 	stw	zero,-24(fp)
        I2C_DEBUG(("I2C HMB_E2 Fail: write NACK!\n"));
 1041228:	01004174 	movhi	r4,261
 104122c:	2119ec04 	addi	r4,r4,26544
 1041230:	1040fe00 	call	1040fe0 <myprintf>
    }
    i2c_stop(clk_base, data_base);
 1041234:	e17ffc17 	ldw	r5,-16(fp)
 1041238:	e13ffb17 	ldw	r4,-20(fp)
 104123c:	104158c0 	call	104158c <i2c_stop>

    usleep(7*1000); // delay to wait EE2 ready (at least 5 ms delay is required)
 1041240:	0106d604 	movi	r4,7000
 1041244:	10545b80 	call	10545b8 <usleep>

    return bSuccess;
 1041248:	e0bffa17 	ldw	r2,-24(fp)


}
 104124c:	e037883a 	mov	sp,fp
 1041250:	dfc00117 	ldw	ra,4(sp)
 1041254:	df000017 	ldw	fp,0(sp)
 1041258:	dec00204 	addi	sp,sp,8
 104125c:	f800283a 	ret

01041260 <I2C_Read>:

bool I2C_Read(alt_u32 clk_base, alt_u32 data_base, alt_8 DeviceAddr, alt_u8 ControlAddr, alt_u8 *pControlData){
 1041260:	defff904 	addi	sp,sp,-28
 1041264:	dfc00615 	stw	ra,24(sp)
 1041268:	df000515 	stw	fp,20(sp)
 104126c:	df000504 	addi	fp,sp,20
 1041270:	e13ffc15 	stw	r4,-16(fp)
 1041274:	e17ffd15 	stw	r5,-12(fp)
 1041278:	3007883a 	mov	r3,r6
 104127c:	3805883a 	mov	r2,r7
 1041280:	e0fffe05 	stb	r3,-8(fp)
 1041284:	e0bfff05 	stb	r2,-4(fp)
    bool bSuccess = TRUE;
 1041288:	00800044 	movi	r2,1
 104128c:	e0bffb15 	stw	r2,-20(fp)
    //alt_u8 DeviceAddr;

    // device id
    //DeviceAddr = HMB_E2_I2C_ID;

    i2c_start(clk_base, data_base);
 1041290:	e17ffd17 	ldw	r5,-12(fp)
 1041294:	e13ffc17 	ldw	r4,-16(fp)
 1041298:	10415000 	call	1041500 <i2c_start>
    if (!i2c_write(clk_base, data_base, DeviceAddr)){  // send ID
 104129c:	e0bffe03 	ldbu	r2,-8(fp)
 10412a0:	10803fcc 	andi	r2,r2,255
 10412a4:	100d883a 	mov	r6,r2
 10412a8:	e17ffd17 	ldw	r5,-12(fp)
 10412ac:	e13ffc17 	ldw	r4,-16(fp)
 10412b0:	10416040 	call	1041604 <i2c_write>
 10412b4:	1000041e 	bne	r2,zero,10412c8 <I2C_Read+0x68>
        bSuccess = FALSE;
 10412b8:	e03ffb15 	stw	zero,-20(fp)
        I2C_DEBUG(("I2C HMB_E2 Fail: Address NACK!\n"));
 10412bc:	01004174 	movhi	r4,261
 10412c0:	2119db04 	addi	r4,r4,26476
 10412c4:	1040fe00 	call	1040fe0 <myprintf>
    }
    if (bSuccess && !i2c_write(clk_base, data_base, ControlAddr)){ // send sub-address
 10412c8:	e0bffb17 	ldw	r2,-20(fp)
 10412cc:	10000a26 	beq	r2,zero,10412f8 <I2C_Read+0x98>
 10412d0:	e0bfff03 	ldbu	r2,-4(fp)
 10412d4:	100d883a 	mov	r6,r2
 10412d8:	e17ffd17 	ldw	r5,-12(fp)
 10412dc:	e13ffc17 	ldw	r4,-16(fp)
 10412e0:	10416040 	call	1041604 <i2c_write>
 10412e4:	1000041e 	bne	r2,zero,10412f8 <I2C_Read+0x98>
        bSuccess = FALSE;
 10412e8:	e03ffb15 	stw	zero,-20(fp)
        I2C_DEBUG(("I2C HMB_E2 Fail: SubAddress NACK!\n"));
 10412ec:	01004174 	movhi	r4,261
 10412f0:	2119e304 	addi	r4,r4,26508
 10412f4:	1040fe00 	call	1040fe0 <myprintf>
    }
    i2c_start(clk_base, data_base);  // restart
 10412f8:	e17ffd17 	ldw	r5,-12(fp)
 10412fc:	e13ffc17 	ldw	r4,-16(fp)
 1041300:	10415000 	call	1041500 <i2c_start>
    DeviceAddr |= 1; // Read
 1041304:	e0bffe03 	ldbu	r2,-8(fp)
 1041308:	10800054 	ori	r2,r2,1
 104130c:	e0bffe05 	stb	r2,-8(fp)
    if (bSuccess && !i2c_write(clk_base, data_base, DeviceAddr)){  // send id
 1041310:	e0bffb17 	ldw	r2,-20(fp)
 1041314:	10000b26 	beq	r2,zero,1041344 <I2C_Read+0xe4>
 1041318:	e0bffe03 	ldbu	r2,-8(fp)
 104131c:	10803fcc 	andi	r2,r2,255
 1041320:	100d883a 	mov	r6,r2
 1041324:	e17ffd17 	ldw	r5,-12(fp)
 1041328:	e13ffc17 	ldw	r4,-16(fp)
 104132c:	10416040 	call	1041604 <i2c_write>
 1041330:	1000041e 	bne	r2,zero,1041344 <I2C_Read+0xe4>
        bSuccess = FALSE;
 1041334:	e03ffb15 	stw	zero,-20(fp)
        I2C_DEBUG(("I2C HMB_E2 Fail: Address+1 NACK!\n"));
 1041338:	01004174 	movhi	r4,261
 104133c:	2119f404 	addi	r4,r4,26576
 1041340:	1040fe00 	call	1040fe0 <myprintf>
    }

    if (bSuccess){
 1041344:	e0bffb17 	ldw	r2,-20(fp)
 1041348:	10000526 	beq	r2,zero,1041360 <I2C_Read+0x100>
        i2c_read(clk_base, data_base, pControlData, FALSE);  // read
 104134c:	000f883a 	mov	r7,zero
 1041350:	e1800217 	ldw	r6,8(fp)
 1041354:	e17ffd17 	ldw	r5,-12(fp)
 1041358:	e13ffc17 	ldw	r4,-16(fp)
 104135c:	10417340 	call	1041734 <i2c_read>
    }
    i2c_stop(clk_base, data_base);
 1041360:	e17ffd17 	ldw	r5,-12(fp)
 1041364:	e13ffc17 	ldw	r4,-16(fp)
 1041368:	104158c0 	call	104158c <i2c_stop>

    return bSuccess;
 104136c:	e0bffb17 	ldw	r2,-20(fp)
}
 1041370:	e037883a 	mov	sp,fp
 1041374:	dfc00117 	ldw	ra,4(sp)
 1041378:	df000017 	ldw	fp,0(sp)
 104137c:	dec00204 	addi	sp,sp,8
 1041380:	f800283a 	ret

01041384 <I2C_MultipleRead>:

bool I2C_MultipleRead(alt_u32 clk_base, alt_u32 data_base, alt_8 DeviceAddr, alt_u8 szData[], alt_u16 len){
 1041384:	defff604 	addi	sp,sp,-40
 1041388:	dfc00915 	stw	ra,36(sp)
 104138c:	df000815 	stw	fp,32(sp)
 1041390:	df000804 	addi	fp,sp,32
 1041394:	e13ffb15 	stw	r4,-20(fp)
 1041398:	e17ffc15 	stw	r5,-16(fp)
 104139c:	3007883a 	mov	r3,r6
 10413a0:	e1fffe15 	stw	r7,-8(fp)
 10413a4:	e0800217 	ldw	r2,8(fp)
 10413a8:	e0fffd05 	stb	r3,-12(fp)
 10413ac:	e0bfff0d 	sth	r2,-4(fp)
    int i;
    bool bSuccess = TRUE;
 10413b0:	00800044 	movi	r2,1
 10413b4:	e0bff915 	stw	r2,-28(fp)
    //alt_u8 DeviceAddr,
    alt_u8 ControlAddr = 0;
 10413b8:	e03ffa05 	stb	zero,-24(fp)


    // device id
    //DeviceAddr = HMB_E2_I2C_ID;

    i2c_start(clk_base, data_base);
 10413bc:	e17ffc17 	ldw	r5,-16(fp)
 10413c0:	e13ffb17 	ldw	r4,-20(fp)
 10413c4:	10415000 	call	1041500 <i2c_start>
    if (!i2c_write(clk_base, data_base, DeviceAddr)){  // send ID
 10413c8:	e0bffd03 	ldbu	r2,-12(fp)
 10413cc:	10803fcc 	andi	r2,r2,255
 10413d0:	100d883a 	mov	r6,r2
 10413d4:	e17ffc17 	ldw	r5,-16(fp)
 10413d8:	e13ffb17 	ldw	r4,-20(fp)
 10413dc:	10416040 	call	1041604 <i2c_write>
 10413e0:	1000041e 	bne	r2,zero,10413f4 <I2C_MultipleRead+0x70>
        bSuccess = FALSE;
 10413e4:	e03ff915 	stw	zero,-28(fp)
        I2C_DEBUG(("I2C HMB_E2 Fail: Address NACK!\n"));
 10413e8:	01004174 	movhi	r4,261
 10413ec:	2119db04 	addi	r4,r4,26476
 10413f0:	1040fe00 	call	1040fe0 <myprintf>
    }
    if (bSuccess && !i2c_write(clk_base, data_base, ControlAddr)){ // send sub-address
 10413f4:	e0bff917 	ldw	r2,-28(fp)
 10413f8:	10000a26 	beq	r2,zero,1041424 <I2C_MultipleRead+0xa0>
 10413fc:	e0bffa03 	ldbu	r2,-24(fp)
 1041400:	100d883a 	mov	r6,r2
 1041404:	e17ffc17 	ldw	r5,-16(fp)
 1041408:	e13ffb17 	ldw	r4,-20(fp)
 104140c:	10416040 	call	1041604 <i2c_write>
 1041410:	1000041e 	bne	r2,zero,1041424 <I2C_MultipleRead+0xa0>
        bSuccess = FALSE;
 1041414:	e03ff915 	stw	zero,-28(fp)
        I2C_DEBUG(("I2C HMB_E2 Fail: SubAddress NACK!\n"));
 1041418:	01004174 	movhi	r4,261
 104141c:	2119e304 	addi	r4,r4,26508
 1041420:	1040fe00 	call	1040fe0 <myprintf>
    }
    if (bSuccess)
 1041424:	e0bff917 	ldw	r2,-28(fp)
 1041428:	10000326 	beq	r2,zero,1041438 <I2C_MultipleRead+0xb4>
        i2c_start(clk_base, data_base);  // restart
 104142c:	e17ffc17 	ldw	r5,-16(fp)
 1041430:	e13ffb17 	ldw	r4,-20(fp)
 1041434:	10415000 	call	1041500 <i2c_start>
    DeviceAddr |= 1; // Read
 1041438:	e0bffd03 	ldbu	r2,-12(fp)
 104143c:	10800054 	ori	r2,r2,1
 1041440:	e0bffd05 	stb	r2,-12(fp)
    if (bSuccess && !i2c_write(clk_base, data_base, DeviceAddr)){  // send id
 1041444:	e0bff917 	ldw	r2,-28(fp)
 1041448:	10000b26 	beq	r2,zero,1041478 <I2C_MultipleRead+0xf4>
 104144c:	e0bffd03 	ldbu	r2,-12(fp)
 1041450:	10803fcc 	andi	r2,r2,255
 1041454:	100d883a 	mov	r6,r2
 1041458:	e17ffc17 	ldw	r5,-16(fp)
 104145c:	e13ffb17 	ldw	r4,-20(fp)
 1041460:	10416040 	call	1041604 <i2c_write>
 1041464:	1000041e 	bne	r2,zero,1041478 <I2C_MultipleRead+0xf4>
        bSuccess = FALSE;
 1041468:	e03ff915 	stw	zero,-28(fp)
        I2C_DEBUG(("I2C HMB_E2 Fail: Address+1 NACK!\n"));
 104146c:	01004174 	movhi	r4,261
 1041470:	2119f404 	addi	r4,r4,26576
 1041474:	1040fe00 	call	1040fe0 <myprintf>
    }

    if (bSuccess){
 1041478:	e0bff917 	ldw	r2,-28(fp)
 104147c:	10001726 	beq	r2,zero,10414dc <I2C_MultipleRead+0x158>
        for(i=0;i<len && bSuccess;i++){
 1041480:	e03ff815 	stw	zero,-32(fp)
 1041484:	00001006 	br	10414c8 <I2C_MultipleRead+0x144>
            i2c_read(clk_base, data_base, &szData[i], (i==(len-1))?FALSE:TRUE);  // read
 1041488:	e0bff817 	ldw	r2,-32(fp)
 104148c:	e0fffe17 	ldw	r3,-8(fp)
 1041490:	1889883a 	add	r4,r3,r2
 1041494:	e0bfff0b 	ldhu	r2,-4(fp)
 1041498:	10ffffc4 	addi	r3,r2,-1
 104149c:	e0bff817 	ldw	r2,-32(fp)
 10414a0:	1884c03a 	cmpne	r2,r3,r2
 10414a4:	10803fcc 	andi	r2,r2,255
 10414a8:	100f883a 	mov	r7,r2
 10414ac:	200d883a 	mov	r6,r4
 10414b0:	e17ffc17 	ldw	r5,-16(fp)
 10414b4:	e13ffb17 	ldw	r4,-20(fp)
 10414b8:	10417340 	call	1041734 <i2c_read>
        bSuccess = FALSE;
        I2C_DEBUG(("I2C HMB_E2 Fail: Address+1 NACK!\n"));
    }

    if (bSuccess){
        for(i=0;i<len && bSuccess;i++){
 10414bc:	e0bff817 	ldw	r2,-32(fp)
 10414c0:	10800044 	addi	r2,r2,1
 10414c4:	e0bff815 	stw	r2,-32(fp)
 10414c8:	e0bfff0b 	ldhu	r2,-4(fp)
 10414cc:	e0fff817 	ldw	r3,-32(fp)
 10414d0:	1880020e 	bge	r3,r2,10414dc <I2C_MultipleRead+0x158>
 10414d4:	e0bff917 	ldw	r2,-28(fp)
 10414d8:	103feb1e 	bne	r2,zero,1041488 <__alt_data_end+0xfffc1488>
            i2c_read(clk_base, data_base, &szData[i], (i==(len-1))?FALSE:TRUE);  // read
        }
    }
    i2c_stop(clk_base, data_base);
 10414dc:	e17ffc17 	ldw	r5,-16(fp)
 10414e0:	e13ffb17 	ldw	r4,-20(fp)
 10414e4:	104158c0 	call	104158c <i2c_stop>

    return bSuccess;
 10414e8:	e0bff917 	ldw	r2,-28(fp)

}
 10414ec:	e037883a 	mov	sp,fp
 10414f0:	dfc00117 	ldw	ra,4(sp)
 10414f4:	df000017 	ldw	fp,0(sp)
 10414f8:	dec00204 	addi	sp,sp,8
 10414fc:	f800283a 	ret

01041500 <i2c_start>:
///////////// Interncal function (i2cXXX) body //////////////////////////////////////////////
/////////////////////////////////////////////////////////////////////////////////////////////


//SDA 1->0 while SCL=1
void i2c_start(alt_u32 clk_base, alt_u32 data_base){
 1041500:	defffc04 	addi	sp,sp,-16
 1041504:	dfc00315 	stw	ra,12(sp)
 1041508:	df000215 	stw	fp,8(sp)
 104150c:	df000204 	addi	fp,sp,8
 1041510:	e13ffe15 	stw	r4,-8(fp)
 1041514:	e17fff15 	stw	r5,-4(fp)

    // make sure it is in normal state
    SDA_DIR_OUT(data_base);  // data output enabled
 1041518:	e0bfff17 	ldw	r2,-4(fp)
 104151c:	10800104 	addi	r2,r2,4
 1041520:	1007883a 	mov	r3,r2
 1041524:	00800044 	movi	r2,1
 1041528:	18800035 	stwio	r2,0(r3)



    // start condition
    SDA_HIGH(data_base); // data high
 104152c:	e0bfff17 	ldw	r2,-4(fp)
 1041530:	00c00044 	movi	r3,1
 1041534:	10c00035 	stwio	r3,0(r2)
    SCL_HIGH(clk_base);
 1041538:	e0bffe17 	ldw	r2,-8(fp)
 104153c:	00c00044 	movi	r3,1
 1041540:	10c00035 	stwio	r3,0(r2)
    SCL_DELAY;
 1041544:	01000044 	movi	r4,1
 1041548:	10545b80 	call	10545b8 <usleep>

    SDA_LOW(data_base); // data low
 104154c:	e0bfff17 	ldw	r2,-4(fp)
 1041550:	0007883a 	mov	r3,zero
 1041554:	10c00035 	stwio	r3,0(r2)
    SCL_DELAY;
 1041558:	01000044 	movi	r4,1
 104155c:	10545b80 	call	10545b8 <usleep>
    SCL_LOW(clk_base); // clock low
 1041560:	e0bffe17 	ldw	r2,-8(fp)
 1041564:	0007883a 	mov	r3,zero
 1041568:	10c00035 	stwio	r3,0(r2)
    SCL_DELAY;
 104156c:	01000044 	movi	r4,1
 1041570:	10545b80 	call	10545b8 <usleep>
}
 1041574:	0001883a 	nop
 1041578:	e037883a 	mov	sp,fp
 104157c:	dfc00117 	ldw	ra,4(sp)
 1041580:	df000017 	ldw	fp,0(sp)
 1041584:	dec00204 	addi	sp,sp,8
 1041588:	f800283a 	ret

0104158c <i2c_stop>:

// SDA 0->1 while SCL=1
void i2c_stop(alt_u32 clk_base, alt_u32 data_base){
 104158c:	defffc04 	addi	sp,sp,-16
 1041590:	dfc00315 	stw	ra,12(sp)
 1041594:	df000215 	stw	fp,8(sp)
 1041598:	df000204 	addi	fp,sp,8
 104159c:	e13ffe15 	stw	r4,-8(fp)
 10415a0:	e17fff15 	stw	r5,-4(fp)
    // assume SCL = 0

    SDA_DIR_OUT(data_base);  // data output enabled
 10415a4:	e0bfff17 	ldw	r2,-4(fp)
 10415a8:	10800104 	addi	r2,r2,4
 10415ac:	1007883a 	mov	r3,r2
 10415b0:	00800044 	movi	r2,1
 10415b4:	18800035 	stwio	r2,0(r3)
    SDA_LOW(data_base); // Data Low
 10415b8:	e0bfff17 	ldw	r2,-4(fp)
 10415bc:	0007883a 	mov	r3,zero
 10415c0:	10c00035 	stwio	r3,0(r2)
    //SCL_DELAY;
    SCL_HIGH(clk_base);  // clock high
 10415c4:	e0bffe17 	ldw	r2,-8(fp)
 10415c8:	00c00044 	movi	r3,1
 10415cc:	10c00035 	stwio	r3,0(r2)
    SCL_DELAY; // clock high long delay
 10415d0:	01000044 	movi	r4,1
 10415d4:	10545b80 	call	10545b8 <usleep>
    SDA_HIGH(data_base); // data high
 10415d8:	e0bfff17 	ldw	r2,-4(fp)
 10415dc:	00c00044 	movi	r3,1
 10415e0:	10c00035 	stwio	r3,0(r2)
    SCL_DELAY; // data high delay
 10415e4:	01000044 	movi	r4,1
 10415e8:	10545b80 	call	10545b8 <usleep>
}
 10415ec:	0001883a 	nop
 10415f0:	e037883a 	mov	sp,fp
 10415f4:	dfc00117 	ldw	ra,4(sp)
 10415f8:	df000017 	ldw	fp,0(sp)
 10415fc:	dec00204 	addi	sp,sp,8
 1041600:	f800283a 	ret

01041604 <i2c_write>:

bool i2c_write(alt_u32 clk_base, alt_u32 data_base, alt_u8 Data){ // return true if device response ack
 1041604:	defff804 	addi	sp,sp,-32
 1041608:	dfc00715 	stw	ra,28(sp)
 104160c:	df000615 	stw	fp,24(sp)
 1041610:	df000604 	addi	fp,sp,24
 1041614:	e13ffd15 	stw	r4,-12(fp)
 1041618:	e17ffe15 	stw	r5,-8(fp)
 104161c:	3005883a 	mov	r2,r6
 1041620:	e0bfff05 	stb	r2,-4(fp)
    alt_u8 Mask = 0x80;
 1041624:	00bfe004 	movi	r2,-128
 1041628:	e0bffa05 	stb	r2,-24(fp)
    bool bAck;
    int i;

    // assume, SCL = 0

    SDA_DIR_OUT(data_base);  // data write mode
 104162c:	e0bffe17 	ldw	r2,-8(fp)
 1041630:	10800104 	addi	r2,r2,4
 1041634:	1007883a 	mov	r3,r2
 1041638:	00800044 	movi	r2,1
 104163c:	18800035 	stwio	r2,0(r3)

    for(i=0;i<8;i++){
 1041640:	e03ffb15 	stw	zero,-20(fp)
 1041644:	00001f06 	br	10416c4 <i2c_write+0xc0>
        SCL_LOW(clk_base);  // new, make sure data change at clk low
 1041648:	e0bffd17 	ldw	r2,-12(fp)
 104164c:	0007883a 	mov	r3,zero
 1041650:	10c00035 	stwio	r3,0(r2)
        // output data on bus
        if (Data & Mask){ // there is a delay in this command
 1041654:	e0ffff03 	ldbu	r3,-4(fp)
 1041658:	e0bffa03 	ldbu	r2,-24(fp)
 104165c:	1884703a 	and	r2,r3,r2
 1041660:	10803fcc 	andi	r2,r2,255
 1041664:	10000426 	beq	r2,zero,1041678 <i2c_write+0x74>
            SDA_HIGH(data_base);
 1041668:	e0bffe17 	ldw	r2,-8(fp)
 104166c:	00c00044 	movi	r3,1
 1041670:	10c00035 	stwio	r3,0(r2)
 1041674:	00000306 	br	1041684 <i2c_write+0x80>
        }else{
            SDA_LOW(data_base);
 1041678:	e0bffe17 	ldw	r2,-8(fp)
 104167c:	0007883a 	mov	r3,zero
 1041680:	10c00035 	stwio	r3,0(r2)
        }
        Mask >>= 1; // there is a delay in this command
 1041684:	e0bffa03 	ldbu	r2,-24(fp)
 1041688:	1004d07a 	srli	r2,r2,1
 104168c:	e0bffa05 	stb	r2,-24(fp)
        // clock high
        SCL_HIGH(clk_base);
 1041690:	e0bffd17 	ldw	r2,-12(fp)
 1041694:	00c00044 	movi	r3,1
 1041698:	10c00035 	stwio	r3,0(r2)
        SCL_DELAY;
 104169c:	01000044 	movi	r4,1
 10416a0:	10545b80 	call	10545b8 <usleep>
        SCL_LOW(clk_base);
 10416a4:	e0bffd17 	ldw	r2,-12(fp)
 10416a8:	0007883a 	mov	r3,zero
 10416ac:	10c00035 	stwio	r3,0(r2)
        SCL_DELAY;
 10416b0:	01000044 	movi	r4,1
 10416b4:	10545b80 	call	10545b8 <usleep>

    // assume, SCL = 0

    SDA_DIR_OUT(data_base);  // data write mode

    for(i=0;i<8;i++){
 10416b8:	e0bffb17 	ldw	r2,-20(fp)
 10416bc:	10800044 	addi	r2,r2,1
 10416c0:	e0bffb15 	stw	r2,-20(fp)
 10416c4:	e0bffb17 	ldw	r2,-20(fp)
 10416c8:	10800210 	cmplti	r2,r2,8
 10416cc:	103fde1e 	bne	r2,zero,1041648 <__alt_data_end+0xfffc1648>
        SCL_LOW(clk_base);
        SCL_DELAY;
    }

    //===== get ack
    SDA_DIR_IN(data_base);  // data read mode
 10416d0:	e0bffe17 	ldw	r2,-8(fp)
 10416d4:	10800104 	addi	r2,r2,4
 10416d8:	0007883a 	mov	r3,zero
 10416dc:	10c00035 	stwio	r3,0(r2)
    //SCL_DELAY;
    // clock high
    SCL_HIGH(clk_base);  // clock high
 10416e0:	e0bffd17 	ldw	r2,-12(fp)
 10416e4:	00c00044 	movi	r3,1
 10416e8:	10c00035 	stwio	r3,0(r2)
    SCL_DELAY;  // clock high delay
 10416ec:	01000044 	movi	r4,1
 10416f0:	10545b80 	call	10545b8 <usleep>
    bAck = SDA_READ(data_base)?FALSE:TRUE;  // get ack
 10416f4:	e0bffe17 	ldw	r2,-8(fp)
 10416f8:	10800037 	ldwio	r2,0(r2)
 10416fc:	1005003a 	cmpeq	r2,r2,zero
 1041700:	10803fcc 	andi	r2,r2,255
 1041704:	e0bffc15 	stw	r2,-16(fp)
    //SCL_DELAY;
    //SDA_DIR_OUT;
    SCL_LOW(clk_base); // clock low
 1041708:	e0bffd17 	ldw	r2,-12(fp)
 104170c:	0007883a 	mov	r3,zero
 1041710:	10c00035 	stwio	r3,0(r2)
    SCL_DELAY; // clock low delay
 1041714:	01000044 	movi	r4,1
 1041718:	10545b80 	call	10545b8 <usleep>
    return bAck;
 104171c:	e0bffc17 	ldw	r2,-16(fp)
}
 1041720:	e037883a 	mov	sp,fp
 1041724:	dfc00117 	ldw	ra,4(sp)
 1041728:	df000017 	ldw	fp,0(sp)
 104172c:	dec00204 	addi	sp,sp,8
 1041730:	f800283a 	ret

01041734 <i2c_read>:

void i2c_read(alt_u32 clk_base, alt_u32 data_base, alt_u8 *pData, bool bAck){ // return true if device response ack
 1041734:	defff804 	addi	sp,sp,-32
 1041738:	dfc00715 	stw	ra,28(sp)
 104173c:	df000615 	stw	fp,24(sp)
 1041740:	df000604 	addi	fp,sp,24
 1041744:	e13ffc15 	stw	r4,-16(fp)
 1041748:	e17ffd15 	stw	r5,-12(fp)
 104174c:	e1bffe15 	stw	r6,-8(fp)
 1041750:	e1ffff15 	stw	r7,-4(fp)
    alt_u8 Data=0;
 1041754:	e03ffa05 	stb	zero,-24(fp)
    int i;

    // assume SCL = low

    SDA_DIR_IN(data_base);  // set data read mode
 1041758:	e0bffd17 	ldw	r2,-12(fp)
 104175c:	10800104 	addi	r2,r2,4
 1041760:	0007883a 	mov	r3,zero
 1041764:	10c00035 	stwio	r3,0(r2)
    SCL_LOW(clk_base); // clock low
 1041768:	e0bffc17 	ldw	r2,-16(fp)
 104176c:	0007883a 	mov	r3,zero
 1041770:	10c00035 	stwio	r3,0(r2)
    SCL_DELAY; // clock low delay
 1041774:	01000044 	movi	r4,1
 1041778:	10545b80 	call	10545b8 <usleep>

    for(i=0;i<8;i++){
 104177c:	e03ffb15 	stw	zero,-20(fp)
 1041780:	00001606 	br	10417dc <i2c_read+0xa8>
        Data <<= 1;
 1041784:	e0bffa03 	ldbu	r2,-24(fp)
 1041788:	1085883a 	add	r2,r2,r2
 104178c:	e0bffa05 	stb	r2,-24(fp)
        SCL_HIGH(clk_base);  // clock high
 1041790:	e0bffc17 	ldw	r2,-16(fp)
 1041794:	00c00044 	movi	r3,1
 1041798:	10c00035 	stwio	r3,0(r2)
        SCL_DELAY;
 104179c:	01000044 	movi	r4,1
 10417a0:	10545b80 	call	10545b8 <usleep>
        if (SDA_READ(data_base))  // read data
 10417a4:	e0bffd17 	ldw	r2,-12(fp)
 10417a8:	10800037 	ldwio	r2,0(r2)
 10417ac:	10000326 	beq	r2,zero,10417bc <i2c_read+0x88>
            Data |= 0x01;
 10417b0:	e0bffa03 	ldbu	r2,-24(fp)
 10417b4:	10800054 	ori	r2,r2,1
 10417b8:	e0bffa05 	stb	r2,-24(fp)
        SCL_LOW(clk_base);  // clock log
 10417bc:	e0bffc17 	ldw	r2,-16(fp)
 10417c0:	0007883a 	mov	r3,zero
 10417c4:	10c00035 	stwio	r3,0(r2)
        SCL_DELAY;
 10417c8:	01000044 	movi	r4,1
 10417cc:	10545b80 	call	10545b8 <usleep>

    SDA_DIR_IN(data_base);  // set data read mode
    SCL_LOW(clk_base); // clock low
    SCL_DELAY; // clock low delay

    for(i=0;i<8;i++){
 10417d0:	e0bffb17 	ldw	r2,-20(fp)
 10417d4:	10800044 	addi	r2,r2,1
 10417d8:	e0bffb15 	stw	r2,-20(fp)
 10417dc:	e0bffb17 	ldw	r2,-20(fp)
 10417e0:	10800210 	cmplti	r2,r2,8
 10417e4:	103fe71e 	bne	r2,zero,1041784 <__alt_data_end+0xfffc1784>
        SCL_LOW(clk_base);  // clock log
        SCL_DELAY;
    }

    // send ACK
    SCL_LOW(clk_base);  // new, make sure data change at clk low
 10417e8:	e0bffc17 	ldw	r2,-16(fp)
 10417ec:	0007883a 	mov	r3,zero
 10417f0:	10c00035 	stwio	r3,0(r2)
    SDA_DIR_OUT(data_base);  // set data write mode
 10417f4:	e0bffd17 	ldw	r2,-12(fp)
 10417f8:	10800104 	addi	r2,r2,4
 10417fc:	1007883a 	mov	r3,r2
 1041800:	00800044 	movi	r2,1
 1041804:	18800035 	stwio	r2,0(r3)
    if (bAck)
 1041808:	e0bfff17 	ldw	r2,-4(fp)
 104180c:	10000426 	beq	r2,zero,1041820 <i2c_read+0xec>
        SDA_LOW(data_base);
 1041810:	e0bffd17 	ldw	r2,-12(fp)
 1041814:	0007883a 	mov	r3,zero
 1041818:	10c00035 	stwio	r3,0(r2)
 104181c:	00000306 	br	104182c <i2c_read+0xf8>
    else
        SDA_HIGH(data_base);
 1041820:	e0bffd17 	ldw	r2,-12(fp)
 1041824:	00c00044 	movi	r3,1
 1041828:	10c00035 	stwio	r3,0(r2)
    SCL_HIGH(clk_base); // clock high
 104182c:	e0bffc17 	ldw	r2,-16(fp)
 1041830:	00c00044 	movi	r3,1
 1041834:	10c00035 	stwio	r3,0(r2)
    SCL_DELAY; // clock high  delay
 1041838:	01000044 	movi	r4,1
 104183c:	10545b80 	call	10545b8 <usleep>
    SCL_LOW(clk_base); // clock low
 1041840:	e0bffc17 	ldw	r2,-16(fp)
 1041844:	0007883a 	mov	r3,zero
 1041848:	10c00035 	stwio	r3,0(r2)
    SCL_DELAY; // clock low delay
 104184c:	01000044 	movi	r4,1
 1041850:	10545b80 	call	10545b8 <usleep>
    SDA_LOW(data_base);  // data low
 1041854:	e0bffd17 	ldw	r2,-12(fp)
 1041858:	0007883a 	mov	r3,zero
 104185c:	10c00035 	stwio	r3,0(r2)
    SCL_DELAY; // data low delay
 1041860:	01000044 	movi	r4,1
 1041864:	10545b80 	call	10545b8 <usleep>
//    SDA_DIR_IN;  // set data read mode

    *pData = Data;
 1041868:	e0bffe17 	ldw	r2,-8(fp)
 104186c:	e0fffa03 	ldbu	r3,-24(fp)
 1041870:	10c00005 	stb	r3,0(r2)
}
 1041874:	0001883a 	nop
 1041878:	e037883a 	mov	sp,fp
 104187c:	dfc00117 	ldw	ra,4(sp)
 1041880:	df000017 	ldw	fp,0(sp)
 1041884:	dec00204 	addi	sp,sp,8
 1041888:	f800283a 	ret

0104188c <audio_setup>:
#define LINEOUT_DEFUALT_VOL 0x5d
#define PI 3.14159265
#define SINE_WAVE_LENGTH	1024
#define SCALE		16384

bool audio_setup(AUDIO_FUNC audio_func, int sample_rate){
 104188c:	defffb04 	addi	sp,sp,-20
 1041890:	dfc00415 	stw	ra,16(sp)
 1041894:	df000315 	stw	fp,12(sp)
 1041898:	df000304 	addi	fp,sp,12
 104189c:	e13ffe15 	stw	r4,-8(fp)
 10418a0:	e17fff15 	stw	r5,-4(fp)
    bool bSuccess = TRUE;
 10418a4:	00800044 	movi	r2,1
 10418a8:	e0bffd15 	stw	r2,-12(fp)
    AUDIO_InterfaceActive(FALSE);
 10418ac:	0009883a 	mov	r4,zero
 10418b0:	10404180 	call	1040418 <AUDIO_InterfaceActive>
    //
    if (audio_func == MIC_RECORD){
 10418b4:	e0bffe17 	ldw	r2,-8(fp)
 10418b8:	10000d1e 	bne	r2,zero,10418f0 <audio_setup+0x64>
        AUDIO_SetInputSource(SOURCE_MIC);
 10418bc:	0009883a 	mov	r4,zero
 10418c0:	10408d80 	call	10408d8 <AUDIO_SetInputSource>
        AUDIO_DacEnableSoftMute(TRUE);
 10418c4:	01000044 	movi	r4,1
 10418c8:	10406e00 	call	10406e0 <AUDIO_DacEnableSoftMute>
        AUDIO_AdcEnableHighPassFilter(FALSE);
 10418cc:	0009883a 	mov	r4,zero
 10418d0:	10404d80 	call	10404d8 <AUDIO_AdcEnableHighPassFilter>
        AUDIO_MicBoost(FALSE);
 10418d4:	0009883a 	mov	r4,zero
 10418d8:	10404600 	call	1040460 <AUDIO_MicBoost>
        AUDIO_MicMute(FALSE);
 10418dc:	0009883a 	mov	r4,zero
 10418e0:	104076c0 	call	104076c <AUDIO_MicMute>
        AUDIO_LineInMute(TRUE);
 10418e4:	01000044 	movi	r4,1
 10418e8:	10407f80 	call	10407f8 <AUDIO_LineInMute>
 10418ec:	00002506 	br	1041984 <audio_setup+0xf8>
    }else if (audio_func == LINEIN_RECORD){
 10418f0:	e0bffe17 	ldw	r2,-8(fp)
 10418f4:	10800058 	cmpnei	r2,r2,1
 10418f8:	10000e1e 	bne	r2,zero,1041934 <audio_setup+0xa8>
        AUDIO_SetInputSource(SOURCE_LINEIN);
 10418fc:	01000044 	movi	r4,1
 1041900:	10408d80 	call	10408d8 <AUDIO_SetInputSource>
        AUDIO_DacEnableSoftMute(TRUE);
 1041904:	01000044 	movi	r4,1
 1041908:	10406e00 	call	10406e0 <AUDIO_DacEnableSoftMute>
        AUDIO_AdcEnableHighPassFilter(FALSE);
 104190c:	0009883a 	mov	r4,zero
 1041910:	10404d80 	call	10404d8 <AUDIO_AdcEnableHighPassFilter>
        AUDIO_MicMute(TRUE);
 1041914:	01000044 	movi	r4,1
 1041918:	104076c0 	call	104076c <AUDIO_MicMute>
        AUDIO_LineInMute(FALSE);
 104191c:	0009883a 	mov	r4,zero
 1041920:	10407f80 	call	10407f8 <AUDIO_LineInMute>
        AUDIO_SetLineInVol(0x17, 0x17);  // max 0x1F, min:0; 0x17: 0dB (assume max input is 2.0v rms)
 1041924:	014005c4 	movi	r5,23
 1041928:	010005c4 	movi	r4,23
 104192c:	1040a4c0 	call	1040a4c <AUDIO_SetLineInVol>
 1041930:	00001406 	br	1041984 <audio_setup+0xf8>
    }else if (audio_func == LINEOUT_PLAY){
 1041934:	e0bffe17 	ldw	r2,-8(fp)
 1041938:	10800098 	cmpnei	r2,r2,2
 104193c:	1000111e 	bne	r2,zero,1041984 <audio_setup+0xf8>
        AUDIO_DacEnableSoftMute(TRUE);
 1041940:	01000044 	movi	r4,1
 1041944:	10406e00 	call	10406e0 <AUDIO_DacEnableSoftMute>
        AUDIO_MicBoost(FALSE);
 1041948:	0009883a 	mov	r4,zero
 104194c:	10404600 	call	1040460 <AUDIO_MicBoost>
        AUDIO_MicMute(TRUE);
 1041950:	01000044 	movi	r4,1
 1041954:	104076c0 	call	104076c <AUDIO_MicMute>
        AUDIO_LineInMute(FALSE);
 1041958:	0009883a 	mov	r4,zero
 104195c:	10407f80 	call	10407f8 <AUDIO_LineInMute>
        AUDIO_DacEnableSoftMute(FALSE);
 1041960:	0009883a 	mov	r4,zero
 1041964:	10406e00 	call	10406e0 <AUDIO_DacEnableSoftMute>
        //AUDIO_DacDeemphasisControl(DEEMPHASIS_48K);
        AUDIO_DacEnableZeroCross(TRUE);
 1041968:	01000044 	movi	r4,1
 104196c:	10406000 	call	1040600 <AUDIO_DacEnableZeroCross>
        AUDIO_SetLineOutVol(LINEOUT_DEFUALT_VOL, LINEOUT_DEFUALT_VOL); // max 7F, min: 30, 0x79: 0 db
 1041970:	01401744 	movi	r5,93
 1041974:	01001744 	movi	r4,93
 1041978:	1040b600 	call	1040b60 <AUDIO_SetLineOutVol>
        AUDIO_DacEnableSoftMute(FALSE);
 104197c:	0009883a 	mov	r4,zero
 1041980:	10406e00 	call	10406e0 <AUDIO_DacEnableSoftMute>
    }

    if (sample_rate == 8000)
 1041984:	e0bfff17 	ldw	r2,-4(fp)
 1041988:	1087d018 	cmpnei	r2,r2,8000
 104198c:	1000031e 	bne	r2,zero,104199c <audio_setup+0x110>
        AUDIO_SetSampleRate(RATE_ADC8K_DAC8K);
 1041990:	010000c4 	movi	r4,3
 1041994:	10409680 	call	1040968 <AUDIO_SetSampleRate>
 1041998:	00001406 	br	10419ec <audio_setup+0x160>
    else if (sample_rate == 32000)
 104199c:	e0bfff17 	ldw	r2,-4(fp)
 10419a0:	109f4018 	cmpnei	r2,r2,32000
 10419a4:	1000031e 	bne	r2,zero,10419b4 <audio_setup+0x128>
        AUDIO_SetSampleRate(RATE_ADC32K_DAC32K);
 10419a8:	01000104 	movi	r4,4
 10419ac:	10409680 	call	1040968 <AUDIO_SetSampleRate>
 10419b0:	00000e06 	br	10419ec <audio_setup+0x160>
    else if (sample_rate == 48000)
 10419b4:	e0ffff17 	ldw	r3,-4(fp)
 10419b8:	00aee014 	movui	r2,48000
 10419bc:	1880031e 	bne	r3,r2,10419cc <audio_setup+0x140>
        AUDIO_SetSampleRate(RATE_ADC48K_DAC48K);
 10419c0:	0009883a 	mov	r4,zero
 10419c4:	10409680 	call	1040968 <AUDIO_SetSampleRate>
 10419c8:	00000806 	br	10419ec <audio_setup+0x160>
    else if (sample_rate == 44100)
 10419cc:	e0ffff17 	ldw	r3,-4(fp)
 10419d0:	00ab1114 	movui	r2,44100
 10419d4:	1880031e 	bne	r3,r2,10419e4 <audio_setup+0x158>
        AUDIO_SetSampleRate(RATE_ADC44K1_DAC44K1);
 10419d8:	01000184 	movi	r4,6
 10419dc:	10409680 	call	1040968 <AUDIO_SetSampleRate>
 10419e0:	00000206 	br	10419ec <audio_setup+0x160>
    else
        AUDIO_SetSampleRate(RATE_ADC96K_DAC96K);
 10419e4:	01000144 	movi	r4,5
 10419e8:	10409680 	call	1040968 <AUDIO_SetSampleRate>
    //
    AUDIO_InterfaceActive(TRUE);
 10419ec:	01000044 	movi	r4,1
 10419f0:	10404180 	call	1040418 <AUDIO_InterfaceActive>

    return bSuccess;
 10419f4:	e0bffd17 	ldw	r2,-12(fp)
}
 10419f8:	e037883a 	mov	sp,fp
 10419fc:	dfc00117 	ldw	ra,4(sp)
 1041a00:	df000017 	ldw	fp,0(sp)
 1041a04:	dec00204 	addi	sp,sp,8
 1041a08:	f800283a 	ret

01041a0c <main>:

int main()
{
 1041a0c:	defff204 	addi	sp,sp,-56
 1041a10:	dfc00d15 	stw	ra,52(sp)
 1041a14:	df000c15 	stw	fp,48(sp)
 1041a18:	dc000b15 	stw	r16,44(sp)
 1041a1c:	df000c04 	addi	fp,sp,48
    int i = 0, step = 2;
 1041a20:	e03ff415 	stw	zero,-48(fp)
 1041a24:	00800084 	movi	r2,2
 1041a28:	e0bff515 	stw	r2,-44(fp)
    double x, y, MIN_RADIAN;
    short data = 0;
 1041a2c:	e03ff60d 	sth	zero,-40(fp)
    short *pBuf;

    if (!AUDIO_Init()){
 1041a30:	10402900 	call	1040290 <AUDIO_Init>
 1041a34:	1000031e 	bne	r2,zero,1041a44 <main+0x38>
        printf("Audio Init Error\r\n");
 1041a38:	01004174 	movhi	r4,261
 1041a3c:	2119fd04 	addi	r4,r4,26612
 1041a40:	1045b800 	call	1045b80 <puts>
    }
    //AUDIO_REG_READ();
    AUDIO_FifoClear();
 1041a44:	1040f7c0 	call	1040f7c <AUDIO_FifoClear>
    int sample_rate = 96000;
 1041a48:	00800074 	movhi	r2,1
 1041a4c:	109dc004 	addi	r2,r2,30464
 1041a50:	e0bff715 	stw	r2,-36(fp)
    audio_setup(LINEOUT_PLAY, sample_rate);
 1041a54:	e17ff717 	ldw	r5,-36(fp)
 1041a58:	01000084 	movi	r4,2
 1041a5c:	104188c0 	call	104188c <audio_setup>
    printf("playing (sample rate = %d)...\r\n", sample_rate);
 1041a60:	e17ff717 	ldw	r5,-36(fp)
 1041a64:	01004174 	movhi	r4,261
 1041a68:	211a0204 	addi	r4,r4,26632
 1041a6c:	1045a840 	call	1045a84 <printf>

    MIN_RADIAN = 2 * PI / SINE_WAVE_LENGTH;
 1041a70:	0094f274 	movhi	r2,21449
 1041a74:	10b53c44 	addi	r2,r2,-11023
 1041a78:	e0bff815 	stw	r2,-32(fp)
 1041a7c:	008fde74 	movhi	r2,16249
 1041a80:	10887ec4 	addi	r2,r2,8699
 1041a84:	e0bff915 	stw	r2,-28(fp)

    pBuf = (short *)DATA_BUFFER_BASE;
 1041a88:	00804234 	movhi	r2,264
 1041a8c:	e0bffa15 	stw	r2,-24(fp)
    for (i = 0; i < SINE_WAVE_LENGTH; i++){
 1041a90:	e03ff415 	stw	zero,-48(fp)
 1041a94:	00002706 	br	1041b34 <main+0x128>
 	   x = MIN_RADIAN * i;
 1041a98:	e13ff417 	ldw	r4,-48(fp)
 1041a9c:	10459140 	call	1045914 <__floatsidf>
 1041aa0:	1011883a 	mov	r8,r2
 1041aa4:	1813883a 	mov	r9,r3
 1041aa8:	e1bff817 	ldw	r6,-32(fp)
 1041aac:	e1fff917 	ldw	r7,-28(fp)
 1041ab0:	4009883a 	mov	r4,r8
 1041ab4:	480b883a 	mov	r5,r9
 1041ab8:	10448800 	call	1044880 <__muldf3>
 1041abc:	1009883a 	mov	r4,r2
 1041ac0:	180b883a 	mov	r5,r3
 1041ac4:	e13ffb15 	stw	r4,-20(fp)
 1041ac8:	e17ffc15 	stw	r5,-16(fp)
 	   y = sin(x) * SCALE;
 1041acc:	e13ffb17 	ldw	r4,-20(fp)
 1041ad0:	e17ffc17 	ldw	r5,-16(fp)
 1041ad4:	1041ba80 	call	1041ba8 <sin>
 1041ad8:	1011883a 	mov	r8,r2
 1041adc:	1813883a 	mov	r9,r3
 1041ae0:	000d883a 	mov	r6,zero
 1041ae4:	01d03434 	movhi	r7,16592
 1041ae8:	4009883a 	mov	r4,r8
 1041aec:	480b883a 	mov	r5,r9
 1041af0:	10448800 	call	1044880 <__muldf3>
 1041af4:	1009883a 	mov	r4,r2
 1041af8:	180b883a 	mov	r5,r3
 1041afc:	e13ffd15 	stw	r4,-12(fp)
 1041b00:	e17ffe15 	stw	r5,-8(fp)
 	   *(pBuf+i) = y;
 1041b04:	e0bff417 	ldw	r2,-48(fp)
 1041b08:	1085883a 	add	r2,r2,r2
 1041b0c:	1007883a 	mov	r3,r2
 1041b10:	e0bffa17 	ldw	r2,-24(fp)
 1041b14:	10e1883a 	add	r16,r2,r3
 1041b18:	e13ffd17 	ldw	r4,-12(fp)
 1041b1c:	e17ffe17 	ldw	r5,-8(fp)
 1041b20:	10458940 	call	1045894 <__fixdfsi>
 1041b24:	8080000d 	sth	r2,0(r16)
    printf("playing (sample rate = %d)...\r\n", sample_rate);

    MIN_RADIAN = 2 * PI / SINE_WAVE_LENGTH;

    pBuf = (short *)DATA_BUFFER_BASE;
    for (i = 0; i < SINE_WAVE_LENGTH; i++){
 1041b28:	e0bff417 	ldw	r2,-48(fp)
 1041b2c:	10800044 	addi	r2,r2,1
 1041b30:	e0bff415 	stw	r2,-48(fp)
 1041b34:	e0bff417 	ldw	r2,-48(fp)
 1041b38:	10810010 	cmplti	r2,r2,1024
 1041b3c:	103fd61e 	bne	r2,zero,1041a98 <__alt_data_end+0xfffc1a98>
 	   x = MIN_RADIAN * i;
 	   y = sin(x) * SCALE;
 	   *(pBuf+i) = y;
    }
    //step = 2;
    i = 0;
 1041b40:	e03ff415 	stw	zero,-48(fp)
    // infinite loop
    while(1){
       // continue playing
       if (AUDIO_DacFifoNotFull()){
 1041b44:	1040e5c0 	call	1040e5c <AUDIO_DacFifoNotFull>
 1041b48:	103ffe26 	beq	r2,zero,1041b44 <__alt_data_end+0xfffc1b44>
    	   data = *(pBuf+i);
 1041b4c:	e0bff417 	ldw	r2,-48(fp)
 1041b50:	1085883a 	add	r2,r2,r2
 1041b54:	1007883a 	mov	r3,r2
 1041b58:	e0bffa17 	ldw	r2,-24(fp)
 1041b5c:	10c5883a 	add	r2,r2,r3
 1041b60:	1080000b 	ldhu	r2,0(r2)
 1041b64:	e0bff60d 	sth	r2,-40(fp)
    	   //IOWR_ALTERA_AVALON_PIO_DATA(LEDR_BASE, data);
    	   //printf("i:%d, data: %d\r\n", i, data);
           AUDIO_DacFifoSetData(data, data);
 1041b68:	e0bff60f 	ldh	r2,-40(fp)
 1041b6c:	e0fff60f 	ldh	r3,-40(fp)
 1041b70:	180b883a 	mov	r5,r3
 1041b74:	1009883a 	mov	r4,r2
 1041b78:	1040e980 	call	1040e98 <AUDIO_DacFifoSetData>
    	   i += step;
 1041b7c:	e0fff417 	ldw	r3,-48(fp)
 1041b80:	e0bff517 	ldw	r2,-44(fp)
 1041b84:	1885883a 	add	r2,r3,r2
 1041b88:	e0bff415 	stw	r2,-48(fp)
    	   if (i >= SINE_WAVE_LENGTH)
 1041b8c:	e0bff417 	ldw	r2,-48(fp)
 1041b90:	10810010 	cmplti	r2,r2,1024
 1041b94:	103feb1e 	bne	r2,zero,1041b44 <__alt_data_end+0xfffc1b44>
    		   i -= SINE_WAVE_LENGTH;
 1041b98:	e0bff417 	ldw	r2,-48(fp)
 1041b9c:	10bf0004 	addi	r2,r2,-1024
 1041ba0:	e0bff415 	stw	r2,-48(fp)
        }
    }
 1041ba4:	003fe706 	br	1041b44 <__alt_data_end+0xfffc1b44>

01041ba8 <sin>:
 1041ba8:	00a00034 	movhi	r2,32768
 1041bac:	defffa04 	addi	sp,sp,-24
 1041bb0:	10bfffc4 	addi	r2,r2,-1
 1041bb4:	00cffa74 	movhi	r3,16361
 1041bb8:	dfc00515 	stw	ra,20(sp)
 1041bbc:	2884703a 	and	r2,r5,r2
 1041bc0:	18c87ec4 	addi	r3,r3,8699
 1041bc4:	1880180e 	bge	r3,r2,1041c28 <sin+0x80>
 1041bc8:	00dffc34 	movhi	r3,32752
 1041bcc:	18ffffc4 	addi	r3,r3,-1
 1041bd0:	1880060e 	bge	r3,r2,1041bec <sin+0x44>
 1041bd4:	280f883a 	mov	r7,r5
 1041bd8:	200d883a 	mov	r6,r4
 1041bdc:	1044f980 	call	1044f98 <__subdf3>
 1041be0:	dfc00517 	ldw	ra,20(sp)
 1041be4:	dec00604 	addi	sp,sp,24
 1041be8:	f800283a 	ret
 1041bec:	d9800104 	addi	r6,sp,4
 1041bf0:	1041c980 	call	1041c98 <__ieee754_rem_pio2>
 1041bf4:	108000cc 	andi	r2,r2,3
 1041bf8:	00c00044 	movi	r3,1
 1041bfc:	10c01926 	beq	r2,r3,1041c64 <sin+0xbc>
 1041c00:	01000084 	movi	r4,2
 1041c04:	11000f26 	beq	r2,r4,1041c44 <sin+0x9c>
 1041c08:	10001c26 	beq	r2,zero,1041c7c <sin+0xd4>
 1041c0c:	d9800317 	ldw	r6,12(sp)
 1041c10:	d9c00417 	ldw	r7,16(sp)
 1041c14:	d9000117 	ldw	r4,4(sp)
 1041c18:	d9400217 	ldw	r5,8(sp)
 1041c1c:	10424040 	call	1042404 <__kernel_cos>
 1041c20:	18e0003c 	xorhi	r3,r3,32768
 1041c24:	003fee06 	br	1041be0 <__alt_data_end+0xfffc1be0>
 1041c28:	d8000015 	stw	zero,0(sp)
 1041c2c:	000d883a 	mov	r6,zero
 1041c30:	000f883a 	mov	r7,zero
 1041c34:	10436380 	call	1043638 <__kernel_sin>
 1041c38:	dfc00517 	ldw	ra,20(sp)
 1041c3c:	dec00604 	addi	sp,sp,24
 1041c40:	f800283a 	ret
 1041c44:	d9800317 	ldw	r6,12(sp)
 1041c48:	d9c00417 	ldw	r7,16(sp)
 1041c4c:	d9000117 	ldw	r4,4(sp)
 1041c50:	d9400217 	ldw	r5,8(sp)
 1041c54:	d8c00015 	stw	r3,0(sp)
 1041c58:	10436380 	call	1043638 <__kernel_sin>
 1041c5c:	18e0003c 	xorhi	r3,r3,32768
 1041c60:	003fdf06 	br	1041be0 <__alt_data_end+0xfffc1be0>
 1041c64:	d9800317 	ldw	r6,12(sp)
 1041c68:	d9c00417 	ldw	r7,16(sp)
 1041c6c:	d9000117 	ldw	r4,4(sp)
 1041c70:	d9400217 	ldw	r5,8(sp)
 1041c74:	10424040 	call	1042404 <__kernel_cos>
 1041c78:	003fd906 	br	1041be0 <__alt_data_end+0xfffc1be0>
 1041c7c:	d9800317 	ldw	r6,12(sp)
 1041c80:	d9c00417 	ldw	r7,16(sp)
 1041c84:	d9000117 	ldw	r4,4(sp)
 1041c88:	d9400217 	ldw	r5,8(sp)
 1041c8c:	d8c00015 	stw	r3,0(sp)
 1041c90:	10436380 	call	1043638 <__kernel_sin>
 1041c94:	003fd206 	br	1041be0 <__alt_data_end+0xfffc1be0>

01041c98 <__ieee754_rem_pio2>:
 1041c98:	02200034 	movhi	r8,32768
 1041c9c:	deffea04 	addi	sp,sp,-88
 1041ca0:	423fffc4 	addi	r8,r8,-1
 1041ca4:	00cffa74 	movhi	r3,16361
 1041ca8:	ddc01315 	stw	r23,76(sp)
 1041cac:	dc400d15 	stw	r17,52(sp)
 1041cb0:	dfc01515 	stw	ra,84(sp)
 1041cb4:	df001415 	stw	fp,80(sp)
 1041cb8:	dd801215 	stw	r22,72(sp)
 1041cbc:	dd401115 	stw	r21,68(sp)
 1041cc0:	dd001015 	stw	r20,64(sp)
 1041cc4:	dcc00f15 	stw	r19,60(sp)
 1041cc8:	dc800e15 	stw	r18,56(sp)
 1041ccc:	dc000c15 	stw	r16,48(sp)
 1041cd0:	2a2e703a 	and	r23,r5,r8
 1041cd4:	18c87ec4 	addi	r3,r3,8699
 1041cd8:	2823883a 	mov	r17,r5
 1041cdc:	1dc0790e 	bge	r3,r23,1041ec4 <__ieee754_rem_pio2+0x22c>
 1041ce0:	009000f4 	movhi	r2,16387
 1041ce4:	10b65ec4 	addi	r2,r2,-9861
 1041ce8:	3021883a 	mov	r16,r6
 1041cec:	2027883a 	mov	r19,r4
 1041cf0:	15c02316 	blt	r2,r23,1041d80 <__ieee754_rem_pio2+0xe8>
 1041cf4:	01cffe74 	movhi	r7,16377
 1041cf8:	39c87ec4 	addi	r7,r7,8699
 1041cfc:	01951034 	movhi	r6,21568
 1041d00:	01417a0e 	bge	zero,r5,10422ec <__ieee754_rem_pio2+0x654>
 1041d04:	1044f980 	call	1044f98 <__subdf3>
 1041d08:	1025883a 	mov	r18,r2
 1041d0c:	008ffe74 	movhi	r2,16377
 1041d10:	10887ec4 	addi	r2,r2,8699
 1041d14:	1823883a 	mov	r17,r3
 1041d18:	b8808426 	beq	r23,r2,1041f2c <__ieee754_rem_pio2+0x294>
 1041d1c:	018698b4 	movhi	r6,6754
 1041d20:	01cf7474 	movhi	r7,15825
 1041d24:	3198cc44 	addi	r6,r6,25393
 1041d28:	39ed1844 	addi	r7,r7,-19359
 1041d2c:	9009883a 	mov	r4,r18
 1041d30:	180b883a 	mov	r5,r3
 1041d34:	1044f980 	call	1044f98 <__subdf3>
 1041d38:	100d883a 	mov	r6,r2
 1041d3c:	180f883a 	mov	r7,r3
 1041d40:	9009883a 	mov	r4,r18
 1041d44:	880b883a 	mov	r5,r17
 1041d48:	80800015 	stw	r2,0(r16)
 1041d4c:	80c00115 	stw	r3,4(r16)
 1041d50:	1044f980 	call	1044f98 <__subdf3>
 1041d54:	018698b4 	movhi	r6,6754
 1041d58:	01cf7474 	movhi	r7,15825
 1041d5c:	3198cc44 	addi	r6,r6,25393
 1041d60:	39ed1844 	addi	r7,r7,-19359
 1041d64:	1009883a 	mov	r4,r2
 1041d68:	180b883a 	mov	r5,r3
 1041d6c:	1044f980 	call	1044f98 <__subdf3>
 1041d70:	80800215 	stw	r2,8(r16)
 1041d74:	80c00315 	stw	r3,12(r16)
 1041d78:	00800044 	movi	r2,1
 1041d7c:	00005606 	br	1041ed8 <__ieee754_rem_pio2+0x240>
 1041d80:	00904e74 	movhi	r2,16697
 1041d84:	10887ec4 	addi	r2,r2,8699
 1041d88:	15c0830e 	bge	r2,r23,1041f98 <__ieee754_rem_pio2+0x300>
 1041d8c:	009ffc34 	movhi	r2,32752
 1041d90:	10bfffc4 	addi	r2,r2,-1
 1041d94:	15c05c16 	blt	r2,r23,1041f08 <__ieee754_rem_pio2+0x270>
 1041d98:	b829d53a 	srai	r20,r23,20
 1041d9c:	a53efa84 	addi	r20,r20,-1046
 1041da0:	a024953a 	slli	r18,r20,20
 1041da4:	bca5c83a 	sub	r18,r23,r18
 1041da8:	900b883a 	mov	r5,r18
 1041dac:	10458940 	call	1045894 <__fixdfsi>
 1041db0:	1009883a 	mov	r4,r2
 1041db4:	10459140 	call	1045914 <__floatsidf>
 1041db8:	9809883a 	mov	r4,r19
 1041dbc:	900b883a 	mov	r5,r18
 1041dc0:	100d883a 	mov	r6,r2
 1041dc4:	180f883a 	mov	r7,r3
 1041dc8:	d8800215 	stw	r2,8(sp)
 1041dcc:	d8c00315 	stw	r3,12(sp)
 1041dd0:	1044f980 	call	1044f98 <__subdf3>
 1041dd4:	000d883a 	mov	r6,zero
 1041dd8:	01d05c34 	movhi	r7,16752
 1041ddc:	1009883a 	mov	r4,r2
 1041de0:	180b883a 	mov	r5,r3
 1041de4:	10448800 	call	1044880 <__muldf3>
 1041de8:	180b883a 	mov	r5,r3
 1041dec:	1009883a 	mov	r4,r2
 1041df0:	182b883a 	mov	r21,r3
 1041df4:	102d883a 	mov	r22,r2
 1041df8:	10458940 	call	1045894 <__fixdfsi>
 1041dfc:	1009883a 	mov	r4,r2
 1041e00:	10459140 	call	1045914 <__floatsidf>
 1041e04:	100d883a 	mov	r6,r2
 1041e08:	180f883a 	mov	r7,r3
 1041e0c:	b009883a 	mov	r4,r22
 1041e10:	a80b883a 	mov	r5,r21
 1041e14:	1027883a 	mov	r19,r2
 1041e18:	1825883a 	mov	r18,r3
 1041e1c:	d8800415 	stw	r2,16(sp)
 1041e20:	d8c00515 	stw	r3,20(sp)
 1041e24:	1044f980 	call	1044f98 <__subdf3>
 1041e28:	000d883a 	mov	r6,zero
 1041e2c:	01d05c34 	movhi	r7,16752
 1041e30:	1009883a 	mov	r4,r2
 1041e34:	180b883a 	mov	r5,r3
 1041e38:	10448800 	call	1044880 <__muldf3>
 1041e3c:	000d883a 	mov	r6,zero
 1041e40:	000f883a 	mov	r7,zero
 1041e44:	1009883a 	mov	r4,r2
 1041e48:	180b883a 	mov	r5,r3
 1041e4c:	d8800615 	stw	r2,24(sp)
 1041e50:	d8c00715 	stw	r3,28(sp)
 1041e54:	104471c0 	call	104471c <__eqdf2>
 1041e58:	1001431e 	bne	r2,zero,1042368 <__ieee754_rem_pio2+0x6d0>
 1041e5c:	000f883a 	mov	r7,zero
 1041e60:	000d883a 	mov	r6,zero
 1041e64:	9809883a 	mov	r4,r19
 1041e68:	900b883a 	mov	r5,r18
 1041e6c:	104471c0 	call	104471c <__eqdf2>
 1041e70:	100f003a 	cmpeq	r7,r2,zero
 1041e74:	00800084 	movi	r2,2
 1041e78:	11cfc83a 	sub	r7,r2,r7
 1041e7c:	00800084 	movi	r2,2
 1041e80:	d8800015 	stw	r2,0(sp)
 1041e84:	00804174 	movhi	r2,261
 1041e88:	109a2a04 	addi	r2,r2,26792
 1041e8c:	d8800115 	stw	r2,4(sp)
 1041e90:	a00d883a 	mov	r6,r20
 1041e94:	800b883a 	mov	r5,r16
 1041e98:	d9000204 	addi	r4,sp,8
 1041e9c:	10428a80 	call	10428a8 <__kernel_rem_pio2>
 1041ea0:	88000d0e 	bge	r17,zero,1041ed8 <__ieee754_rem_pio2+0x240>
 1041ea4:	81000117 	ldw	r4,4(r16)
 1041ea8:	80c00317 	ldw	r3,12(r16)
 1041eac:	0085c83a 	sub	r2,zero,r2
 1041eb0:	2120003c 	xorhi	r4,r4,32768
 1041eb4:	18e0003c 	xorhi	r3,r3,32768
 1041eb8:	81000115 	stw	r4,4(r16)
 1041ebc:	80c00315 	stw	r3,12(r16)
 1041ec0:	00000506 	br	1041ed8 <__ieee754_rem_pio2+0x240>
 1041ec4:	31000015 	stw	r4,0(r6)
 1041ec8:	31400115 	stw	r5,4(r6)
 1041ecc:	30000215 	stw	zero,8(r6)
 1041ed0:	30000315 	stw	zero,12(r6)
 1041ed4:	0005883a 	mov	r2,zero
 1041ed8:	dfc01517 	ldw	ra,84(sp)
 1041edc:	df001417 	ldw	fp,80(sp)
 1041ee0:	ddc01317 	ldw	r23,76(sp)
 1041ee4:	dd801217 	ldw	r22,72(sp)
 1041ee8:	dd401117 	ldw	r21,68(sp)
 1041eec:	dd001017 	ldw	r20,64(sp)
 1041ef0:	dcc00f17 	ldw	r19,60(sp)
 1041ef4:	dc800e17 	ldw	r18,56(sp)
 1041ef8:	dc400d17 	ldw	r17,52(sp)
 1041efc:	dc000c17 	ldw	r16,48(sp)
 1041f00:	dec01604 	addi	sp,sp,88
 1041f04:	f800283a 	ret
 1041f08:	200d883a 	mov	r6,r4
 1041f0c:	280f883a 	mov	r7,r5
 1041f10:	1044f980 	call	1044f98 <__subdf3>
 1041f14:	80800215 	stw	r2,8(r16)
 1041f18:	80800015 	stw	r2,0(r16)
 1041f1c:	80c00315 	stw	r3,12(r16)
 1041f20:	80c00115 	stw	r3,4(r16)
 1041f24:	0005883a 	mov	r2,zero
 1041f28:	003feb06 	br	1041ed8 <__alt_data_end+0xfffc1ed8>
 1041f2c:	01cf7474 	movhi	r7,15825
 1041f30:	9009883a 	mov	r4,r18
 1041f34:	39ed1844 	addi	r7,r7,-19359
 1041f38:	01869834 	movhi	r6,6752
 1041f3c:	180b883a 	mov	r5,r3
 1041f40:	1044f980 	call	1044f98 <__subdf3>
 1041f44:	018b80f4 	movhi	r6,11779
 1041f48:	01cee8f4 	movhi	r7,15267
 1041f4c:	319c1cc4 	addi	r6,r6,28787
 1041f50:	39c66284 	addi	r7,r7,6538
 1041f54:	1009883a 	mov	r4,r2
 1041f58:	180b883a 	mov	r5,r3
 1041f5c:	1025883a 	mov	r18,r2
 1041f60:	1823883a 	mov	r17,r3
 1041f64:	1044f980 	call	1044f98 <__subdf3>
 1041f68:	100d883a 	mov	r6,r2
 1041f6c:	180f883a 	mov	r7,r3
 1041f70:	9009883a 	mov	r4,r18
 1041f74:	880b883a 	mov	r5,r17
 1041f78:	80800015 	stw	r2,0(r16)
 1041f7c:	80c00115 	stw	r3,4(r16)
 1041f80:	1044f980 	call	1044f98 <__subdf3>
 1041f84:	018b80f4 	movhi	r6,11779
 1041f88:	01cee8f4 	movhi	r7,15267
 1041f8c:	319c1cc4 	addi	r6,r6,28787
 1041f90:	39c66284 	addi	r7,r7,6538
 1041f94:	003f7306 	br	1041d64 <__alt_data_end+0xfffc1d64>
 1041f98:	10439040 	call	1043904 <fabs>
 1041f9c:	019b72b4 	movhi	r6,28106
 1041fa0:	01cff934 	movhi	r7,16356
 1041fa4:	31b220c4 	addi	r6,r6,-14205
 1041fa8:	39d7cc04 	addi	r7,r7,24368
 1041fac:	1009883a 	mov	r4,r2
 1041fb0:	180b883a 	mov	r5,r3
 1041fb4:	102d883a 	mov	r22,r2
 1041fb8:	182b883a 	mov	r21,r3
 1041fbc:	10448800 	call	1044880 <__muldf3>
 1041fc0:	000d883a 	mov	r6,zero
 1041fc4:	01cff834 	movhi	r7,16352
 1041fc8:	1009883a 	mov	r4,r2
 1041fcc:	180b883a 	mov	r5,r3
 1041fd0:	1043e700 	call	1043e70 <__adddf3>
 1041fd4:	180b883a 	mov	r5,r3
 1041fd8:	1009883a 	mov	r4,r2
 1041fdc:	10458940 	call	1045894 <__fixdfsi>
 1041fe0:	1009883a 	mov	r4,r2
 1041fe4:	1025883a 	mov	r18,r2
 1041fe8:	10459140 	call	1045914 <__floatsidf>
 1041fec:	01cffe74 	movhi	r7,16377
 1041ff0:	39c87ec4 	addi	r7,r7,8699
 1041ff4:	01951034 	movhi	r6,21568
 1041ff8:	1009883a 	mov	r4,r2
 1041ffc:	180b883a 	mov	r5,r3
 1042000:	1029883a 	mov	r20,r2
 1042004:	1827883a 	mov	r19,r3
 1042008:	10448800 	call	1044880 <__muldf3>
 104200c:	b009883a 	mov	r4,r22
 1042010:	a80b883a 	mov	r5,r21
 1042014:	100d883a 	mov	r6,r2
 1042018:	180f883a 	mov	r7,r3
 104201c:	1044f980 	call	1044f98 <__subdf3>
 1042020:	018698b4 	movhi	r6,6754
 1042024:	01cf7474 	movhi	r7,15825
 1042028:	a009883a 	mov	r4,r20
 104202c:	3198cc44 	addi	r6,r6,25393
 1042030:	39ed1844 	addi	r7,r7,-19359
 1042034:	980b883a 	mov	r5,r19
 1042038:	1039883a 	mov	fp,r2
 104203c:	d8c00815 	stw	r3,32(sp)
 1042040:	10448800 	call	1044880 <__muldf3>
 1042044:	010007c4 	movi	r4,31
 1042048:	e017883a 	mov	r11,fp
 104204c:	da800817 	ldw	r10,32(sp)
 1042050:	102d883a 	mov	r22,r2
 1042054:	182b883a 	mov	r21,r3
 1042058:	24802816 	blt	r4,r18,10420fc <__ieee754_rem_pio2+0x464>
 104205c:	913fffc4 	addi	r4,r18,-1
 1042060:	2109883a 	add	r4,r4,r4
 1042064:	01404174 	movhi	r5,261
 1042068:	2109883a 	add	r4,r4,r4
 104206c:	295a0a04 	addi	r5,r5,26664
 1042070:	2909883a 	add	r4,r5,r4
 1042074:	21000017 	ldw	r4,0(r4)
 1042078:	b9002026 	beq	r23,r4,10420fc <__ieee754_rem_pio2+0x464>
 104207c:	100d883a 	mov	r6,r2
 1042080:	180f883a 	mov	r7,r3
 1042084:	e009883a 	mov	r4,fp
 1042088:	500b883a 	mov	r5,r10
 104208c:	da800b15 	stw	r10,44(sp)
 1042090:	df000a15 	stw	fp,40(sp)
 1042094:	1044f980 	call	1044f98 <__subdf3>
 1042098:	da800b17 	ldw	r10,44(sp)
 104209c:	dac00a17 	ldw	r11,40(sp)
 10420a0:	1019883a 	mov	r12,r2
 10420a4:	1813883a 	mov	r9,r3
 10420a8:	80800015 	stw	r2,0(r16)
 10420ac:	80c00115 	stw	r3,4(r16)
 10420b0:	600d883a 	mov	r6,r12
 10420b4:	480f883a 	mov	r7,r9
 10420b8:	5809883a 	mov	r4,r11
 10420bc:	500b883a 	mov	r5,r10
 10420c0:	da400b15 	stw	r9,44(sp)
 10420c4:	db000a15 	stw	r12,40(sp)
 10420c8:	1044f980 	call	1044f98 <__subdf3>
 10420cc:	b00d883a 	mov	r6,r22
 10420d0:	a80f883a 	mov	r7,r21
 10420d4:	1009883a 	mov	r4,r2
 10420d8:	180b883a 	mov	r5,r3
 10420dc:	1044f980 	call	1044f98 <__subdf3>
 10420e0:	80800215 	stw	r2,8(r16)
 10420e4:	80c00315 	stw	r3,12(r16)
 10420e8:	da400b17 	ldw	r9,44(sp)
 10420ec:	db000a17 	ldw	r12,40(sp)
 10420f0:	88009f16 	blt	r17,zero,1042370 <__ieee754_rem_pio2+0x6d8>
 10420f4:	9005883a 	mov	r2,r18
 10420f8:	003f7706 	br	1041ed8 <__alt_data_end+0xfffc1ed8>
 10420fc:	d9400817 	ldw	r5,32(sp)
 1042100:	100d883a 	mov	r6,r2
 1042104:	180f883a 	mov	r7,r3
 1042108:	e009883a 	mov	r4,fp
 104210c:	da800b15 	stw	r10,44(sp)
 1042110:	dac00a15 	stw	r11,40(sp)
 1042114:	1044f980 	call	1044f98 <__subdf3>
 1042118:	1019883a 	mov	r12,r2
 104211c:	1804d53a 	srli	r2,r3,20
 1042120:	b811d53a 	srai	r8,r23,20
 1042124:	1813883a 	mov	r9,r3
 1042128:	1081ffcc 	andi	r2,r2,2047
 104212c:	80c00115 	stw	r3,4(r16)
 1042130:	83000015 	stw	r12,0(r16)
 1042134:	4085c83a 	sub	r2,r8,r2
 1042138:	00c00404 	movi	r3,16
 104213c:	da800b17 	ldw	r10,44(sp)
 1042140:	dac00a17 	ldw	r11,40(sp)
 1042144:	18bfda0e 	bge	r3,r2,10420b0 <__alt_data_end+0xfffc20b0>
 1042148:	01cf7474 	movhi	r7,15825
 104214c:	39ed1844 	addi	r7,r7,-19359
 1042150:	01869834 	movhi	r6,6752
 1042154:	a009883a 	mov	r4,r20
 1042158:	980b883a 	mov	r5,r19
 104215c:	da000a15 	stw	r8,40(sp)
 1042160:	10448800 	call	1044880 <__muldf3>
 1042164:	d9400817 	ldw	r5,32(sp)
 1042168:	100d883a 	mov	r6,r2
 104216c:	180f883a 	mov	r7,r3
 1042170:	e009883a 	mov	r4,fp
 1042174:	102d883a 	mov	r22,r2
 1042178:	182b883a 	mov	r21,r3
 104217c:	1044f980 	call	1044f98 <__subdf3>
 1042180:	d9400817 	ldw	r5,32(sp)
 1042184:	100d883a 	mov	r6,r2
 1042188:	180f883a 	mov	r7,r3
 104218c:	e009883a 	mov	r4,fp
 1042190:	182f883a 	mov	r23,r3
 1042194:	d8800915 	stw	r2,36(sp)
 1042198:	1044f980 	call	1044f98 <__subdf3>
 104219c:	b00d883a 	mov	r6,r22
 10421a0:	a80f883a 	mov	r7,r21
 10421a4:	1009883a 	mov	r4,r2
 10421a8:	180b883a 	mov	r5,r3
 10421ac:	1044f980 	call	1044f98 <__subdf3>
 10421b0:	018b80f4 	movhi	r6,11779
 10421b4:	01cee8f4 	movhi	r7,15267
 10421b8:	319c1cc4 	addi	r6,r6,28787
 10421bc:	39c66284 	addi	r7,r7,6538
 10421c0:	a009883a 	mov	r4,r20
 10421c4:	980b883a 	mov	r5,r19
 10421c8:	102d883a 	mov	r22,r2
 10421cc:	182b883a 	mov	r21,r3
 10421d0:	10448800 	call	1044880 <__muldf3>
 10421d4:	b00d883a 	mov	r6,r22
 10421d8:	a80f883a 	mov	r7,r21
 10421dc:	1009883a 	mov	r4,r2
 10421e0:	180b883a 	mov	r5,r3
 10421e4:	1044f980 	call	1044f98 <__subdf3>
 10421e8:	d9000917 	ldw	r4,36(sp)
 10421ec:	100d883a 	mov	r6,r2
 10421f0:	180f883a 	mov	r7,r3
 10421f4:	b80b883a 	mov	r5,r23
 10421f8:	102d883a 	mov	r22,r2
 10421fc:	182b883a 	mov	r21,r3
 1042200:	1044f980 	call	1044f98 <__subdf3>
 1042204:	1019883a 	mov	r12,r2
 1042208:	1804d53a 	srli	r2,r3,20
 104220c:	da000a17 	ldw	r8,40(sp)
 1042210:	83000015 	stw	r12,0(r16)
 1042214:	1081ffcc 	andi	r2,r2,2047
 1042218:	4091c83a 	sub	r8,r8,r2
 104221c:	80c00115 	stw	r3,4(r16)
 1042220:	00800c44 	movi	r2,49
 1042224:	1813883a 	mov	r9,r3
 1042228:	1200730e 	bge	r2,r8,10423f8 <__ieee754_rem_pio2+0x760>
 104222c:	01cee8f4 	movhi	r7,15267
 1042230:	39c66284 	addi	r7,r7,6538
 1042234:	018b8034 	movhi	r6,11776
 1042238:	a009883a 	mov	r4,r20
 104223c:	980b883a 	mov	r5,r19
 1042240:	10448800 	call	1044880 <__muldf3>
 1042244:	d9000917 	ldw	r4,36(sp)
 1042248:	100d883a 	mov	r6,r2
 104224c:	180f883a 	mov	r7,r3
 1042250:	b80b883a 	mov	r5,r23
 1042254:	102d883a 	mov	r22,r2
 1042258:	182b883a 	mov	r21,r3
 104225c:	1044f980 	call	1044f98 <__subdf3>
 1042260:	d9000917 	ldw	r4,36(sp)
 1042264:	100d883a 	mov	r6,r2
 1042268:	180f883a 	mov	r7,r3
 104226c:	b80b883a 	mov	r5,r23
 1042270:	d8c00b15 	stw	r3,44(sp)
 1042274:	d8800a15 	stw	r2,40(sp)
 1042278:	1044f980 	call	1044f98 <__subdf3>
 104227c:	b00d883a 	mov	r6,r22
 1042280:	a80f883a 	mov	r7,r21
 1042284:	1009883a 	mov	r4,r2
 1042288:	180b883a 	mov	r5,r3
 104228c:	1044f980 	call	1044f98 <__subdf3>
 1042290:	01894834 	movhi	r6,9504
 1042294:	01ce5f34 	movhi	r7,14716
 1042298:	31927044 	addi	r6,r6,18881
 104229c:	39e0e684 	addi	r7,r7,-31846
 10422a0:	a009883a 	mov	r4,r20
 10422a4:	980b883a 	mov	r5,r19
 10422a8:	102d883a 	mov	r22,r2
 10422ac:	182b883a 	mov	r21,r3
 10422b0:	10448800 	call	1044880 <__muldf3>
 10422b4:	b00d883a 	mov	r6,r22
 10422b8:	a80f883a 	mov	r7,r21
 10422bc:	1009883a 	mov	r4,r2
 10422c0:	180b883a 	mov	r5,r3
 10422c4:	1044f980 	call	1044f98 <__subdf3>
 10422c8:	dac00a17 	ldw	r11,40(sp)
 10422cc:	da800b17 	ldw	r10,44(sp)
 10422d0:	102d883a 	mov	r22,r2
 10422d4:	182b883a 	mov	r21,r3
 10422d8:	100d883a 	mov	r6,r2
 10422dc:	180f883a 	mov	r7,r3
 10422e0:	5809883a 	mov	r4,r11
 10422e4:	500b883a 	mov	r5,r10
 10422e8:	003f6a06 	br	1042094 <__alt_data_end+0xfffc2094>
 10422ec:	1043e700 	call	1043e70 <__adddf3>
 10422f0:	1025883a 	mov	r18,r2
 10422f4:	008ffe74 	movhi	r2,16377
 10422f8:	10887ec4 	addi	r2,r2,8699
 10422fc:	1823883a 	mov	r17,r3
 1042300:	b8802226 	beq	r23,r2,104238c <__ieee754_rem_pio2+0x6f4>
 1042304:	018698b4 	movhi	r6,6754
 1042308:	01cf7474 	movhi	r7,15825
 104230c:	3198cc44 	addi	r6,r6,25393
 1042310:	39ed1844 	addi	r7,r7,-19359
 1042314:	9009883a 	mov	r4,r18
 1042318:	180b883a 	mov	r5,r3
 104231c:	1043e700 	call	1043e70 <__adddf3>
 1042320:	100d883a 	mov	r6,r2
 1042324:	180f883a 	mov	r7,r3
 1042328:	9009883a 	mov	r4,r18
 104232c:	880b883a 	mov	r5,r17
 1042330:	80800015 	stw	r2,0(r16)
 1042334:	80c00115 	stw	r3,4(r16)
 1042338:	1044f980 	call	1044f98 <__subdf3>
 104233c:	018698b4 	movhi	r6,6754
 1042340:	01cf7474 	movhi	r7,15825
 1042344:	3198cc44 	addi	r6,r6,25393
 1042348:	39ed1844 	addi	r7,r7,-19359
 104234c:	1009883a 	mov	r4,r2
 1042350:	180b883a 	mov	r5,r3
 1042354:	1043e700 	call	1043e70 <__adddf3>
 1042358:	80800215 	stw	r2,8(r16)
 104235c:	80c00315 	stw	r3,12(r16)
 1042360:	00bfffc4 	movi	r2,-1
 1042364:	003edc06 	br	1041ed8 <__alt_data_end+0xfffc1ed8>
 1042368:	01c000c4 	movi	r7,3
 104236c:	003ec306 	br	1041e7c <__alt_data_end+0xfffc1e7c>
 1042370:	4a60003c 	xorhi	r9,r9,32768
 1042374:	18e0003c 	xorhi	r3,r3,32768
 1042378:	83000015 	stw	r12,0(r16)
 104237c:	82400115 	stw	r9,4(r16)
 1042380:	80c00315 	stw	r3,12(r16)
 1042384:	0485c83a 	sub	r2,zero,r18
 1042388:	003ed306 	br	1041ed8 <__alt_data_end+0xfffc1ed8>
 104238c:	01cf7474 	movhi	r7,15825
 1042390:	9009883a 	mov	r4,r18
 1042394:	39ed1844 	addi	r7,r7,-19359
 1042398:	01869834 	movhi	r6,6752
 104239c:	180b883a 	mov	r5,r3
 10423a0:	1043e700 	call	1043e70 <__adddf3>
 10423a4:	018b80f4 	movhi	r6,11779
 10423a8:	01cee8f4 	movhi	r7,15267
 10423ac:	319c1cc4 	addi	r6,r6,28787
 10423b0:	39c66284 	addi	r7,r7,6538
 10423b4:	1009883a 	mov	r4,r2
 10423b8:	180b883a 	mov	r5,r3
 10423bc:	1025883a 	mov	r18,r2
 10423c0:	1823883a 	mov	r17,r3
 10423c4:	1043e700 	call	1043e70 <__adddf3>
 10423c8:	100d883a 	mov	r6,r2
 10423cc:	180f883a 	mov	r7,r3
 10423d0:	9009883a 	mov	r4,r18
 10423d4:	880b883a 	mov	r5,r17
 10423d8:	80800015 	stw	r2,0(r16)
 10423dc:	80c00115 	stw	r3,4(r16)
 10423e0:	1044f980 	call	1044f98 <__subdf3>
 10423e4:	018b80f4 	movhi	r6,11779
 10423e8:	01cee8f4 	movhi	r7,15267
 10423ec:	319c1cc4 	addi	r6,r6,28787
 10423f0:	39c66284 	addi	r7,r7,6538
 10423f4:	003fd506 	br	104234c <__alt_data_end+0xfffc234c>
 10423f8:	dac00917 	ldw	r11,36(sp)
 10423fc:	b815883a 	mov	r10,r23
 1042400:	003f2b06 	br	10420b0 <__alt_data_end+0xfffc20b0>

01042404 <__kernel_cos>:
 1042404:	defff304 	addi	sp,sp,-52
 1042408:	dc000315 	stw	r16,12(sp)
 104240c:	04200034 	movhi	r16,32768
 1042410:	843fffc4 	addi	r16,r16,-1
 1042414:	008f9034 	movhi	r2,15936
 1042418:	df000b15 	stw	fp,44(sp)
 104241c:	ddc00a15 	stw	r23,40(sp)
 1042420:	dd800915 	stw	r22,36(sp)
 1042424:	dcc00615 	stw	r19,24(sp)
 1042428:	dfc00c15 	stw	ra,48(sp)
 104242c:	dd400815 	stw	r21,32(sp)
 1042430:	dd000715 	stw	r20,28(sp)
 1042434:	dc800515 	stw	r18,20(sp)
 1042438:	dc400415 	stw	r17,16(sp)
 104243c:	2c20703a 	and	r16,r5,r16
 1042440:	10bfffc4 	addi	r2,r2,-1
 1042444:	2827883a 	mov	r19,r5
 1042448:	202d883a 	mov	r22,r4
 104244c:	302f883a 	mov	r23,r6
 1042450:	3839883a 	mov	fp,r7
 1042454:	14007516 	blt	r2,r16,104262c <__kernel_cos+0x228>
 1042458:	10458940 	call	1045894 <__fixdfsi>
 104245c:	10010f26 	beq	r2,zero,104289c <__kernel_cos+0x498>
 1042460:	b00d883a 	mov	r6,r22
 1042464:	980f883a 	mov	r7,r19
 1042468:	b009883a 	mov	r4,r22
 104246c:	980b883a 	mov	r5,r19
 1042470:	10448800 	call	1044880 <__muldf3>
 1042474:	01afa234 	movhi	r6,48776
 1042478:	01ef6a74 	movhi	r7,48553
 104247c:	318e3504 	addi	r6,r6,14548
 1042480:	39feba44 	addi	r7,r7,-1303
 1042484:	1009883a 	mov	r4,r2
 1042488:	180b883a 	mov	r5,r3
 104248c:	102b883a 	mov	r21,r2
 1042490:	1829883a 	mov	r20,r3
 1042494:	10448800 	call	1044880 <__muldf3>
 1042498:	01af6d74 	movhi	r6,48565
 104249c:	01cf88b4 	movhi	r7,15906
 10424a0:	31ac7104 	addi	r6,r6,-20028
 10424a4:	39fba784 	addi	r7,r7,-4450
 10424a8:	1009883a 	mov	r4,r2
 10424ac:	180b883a 	mov	r5,r3
 10424b0:	1043e700 	call	1043e70 <__adddf3>
 10424b4:	a80d883a 	mov	r6,r21
 10424b8:	a00f883a 	mov	r7,r20
 10424bc:	1009883a 	mov	r4,r2
 10424c0:	180b883a 	mov	r5,r3
 10424c4:	10448800 	call	1044880 <__muldf3>
 10424c8:	01a02734 	movhi	r6,32924
 10424cc:	01cfa4b4 	movhi	r7,16018
 10424d0:	3194ab44 	addi	r6,r6,21165
 10424d4:	39df93c4 	addi	r7,r7,32335
 10424d8:	1009883a 	mov	r4,r2
 10424dc:	180b883a 	mov	r5,r3
 10424e0:	1044f980 	call	1044f98 <__subdf3>
 10424e4:	a80d883a 	mov	r6,r21
 10424e8:	a00f883a 	mov	r7,r20
 10424ec:	1009883a 	mov	r4,r2
 10424f0:	180b883a 	mov	r5,r3
 10424f4:	10448800 	call	1044880 <__muldf3>
 10424f8:	018672f4 	movhi	r6,6603
 10424fc:	01cfbeb4 	movhi	r7,16122
 1042500:	31856404 	addi	r6,r6,5520
 1042504:	39c06804 	addi	r7,r7,416
 1042508:	1009883a 	mov	r4,r2
 104250c:	180b883a 	mov	r5,r3
 1042510:	1043e700 	call	1043e70 <__adddf3>
 1042514:	a80d883a 	mov	r6,r21
 1042518:	a00f883a 	mov	r7,r20
 104251c:	1009883a 	mov	r4,r2
 1042520:	180b883a 	mov	r5,r3
 1042524:	10448800 	call	1044880 <__muldf3>
 1042528:	0185b074 	movhi	r6,5825
 104252c:	01cfd5f4 	movhi	r7,16215
 1042530:	31945dc4 	addi	r6,r6,20855
 1042534:	39f05b04 	addi	r7,r7,-16020
 1042538:	1009883a 	mov	r4,r2
 104253c:	180b883a 	mov	r5,r3
 1042540:	1044f980 	call	1044f98 <__subdf3>
 1042544:	a80d883a 	mov	r6,r21
 1042548:	a00f883a 	mov	r7,r20
 104254c:	1009883a 	mov	r4,r2
 1042550:	180b883a 	mov	r5,r3
 1042554:	10448800 	call	1044880 <__muldf3>
 1042558:	01955574 	movhi	r6,21845
 104255c:	01cfe974 	movhi	r7,16293
 1042560:	31955304 	addi	r6,r6,21836
 1042564:	39d55544 	addi	r7,r7,21845
 1042568:	1009883a 	mov	r4,r2
 104256c:	180b883a 	mov	r5,r3
 1042570:	1043e700 	call	1043e70 <__adddf3>
 1042574:	a80d883a 	mov	r6,r21
 1042578:	a00f883a 	mov	r7,r20
 104257c:	1009883a 	mov	r4,r2
 1042580:	180b883a 	mov	r5,r3
 1042584:	10448800 	call	1044880 <__muldf3>
 1042588:	1017883a 	mov	r11,r2
 104258c:	1815883a 	mov	r10,r3
 1042590:	a809883a 	mov	r4,r21
 1042594:	a00b883a 	mov	r5,r20
 1042598:	000d883a 	mov	r6,zero
 104259c:	01cff834 	movhi	r7,16352
 10425a0:	da800215 	stw	r10,8(sp)
 10425a4:	dac00115 	stw	r11,4(sp)
 10425a8:	10448800 	call	1044880 <__muldf3>
 10425ac:	dac00117 	ldw	r11,4(sp)
 10425b0:	da800217 	ldw	r10,8(sp)
 10425b4:	a809883a 	mov	r4,r21
 10425b8:	580d883a 	mov	r6,r11
 10425bc:	500f883a 	mov	r7,r10
 10425c0:	a00b883a 	mov	r5,r20
 10425c4:	1023883a 	mov	r17,r2
 10425c8:	1821883a 	mov	r16,r3
 10425cc:	10448800 	call	1044880 <__muldf3>
 10425d0:	b80d883a 	mov	r6,r23
 10425d4:	e00f883a 	mov	r7,fp
 10425d8:	b009883a 	mov	r4,r22
 10425dc:	980b883a 	mov	r5,r19
 10425e0:	1029883a 	mov	r20,r2
 10425e4:	1825883a 	mov	r18,r3
 10425e8:	10448800 	call	1044880 <__muldf3>
 10425ec:	a009883a 	mov	r4,r20
 10425f0:	900b883a 	mov	r5,r18
 10425f4:	100d883a 	mov	r6,r2
 10425f8:	180f883a 	mov	r7,r3
 10425fc:	1044f980 	call	1044f98 <__subdf3>
 1042600:	8809883a 	mov	r4,r17
 1042604:	800b883a 	mov	r5,r16
 1042608:	100d883a 	mov	r6,r2
 104260c:	180f883a 	mov	r7,r3
 1042610:	1044f980 	call	1044f98 <__subdf3>
 1042614:	100d883a 	mov	r6,r2
 1042618:	180f883a 	mov	r7,r3
 104261c:	0009883a 	mov	r4,zero
 1042620:	014ffc34 	movhi	r5,16368
 1042624:	1044f980 	call	1044f98 <__subdf3>
 1042628:	00008b06 	br	1042858 <__kernel_cos+0x454>
 104262c:	200d883a 	mov	r6,r4
 1042630:	280f883a 	mov	r7,r5
 1042634:	10448800 	call	1044880 <__muldf3>
 1042638:	01afa234 	movhi	r6,48776
 104263c:	01ef6a74 	movhi	r7,48553
 1042640:	318e3504 	addi	r6,r6,14548
 1042644:	39feba44 	addi	r7,r7,-1303
 1042648:	1009883a 	mov	r4,r2
 104264c:	180b883a 	mov	r5,r3
 1042650:	1025883a 	mov	r18,r2
 1042654:	1823883a 	mov	r17,r3
 1042658:	10448800 	call	1044880 <__muldf3>
 104265c:	01af6d74 	movhi	r6,48565
 1042660:	01cf88b4 	movhi	r7,15906
 1042664:	31ac7104 	addi	r6,r6,-20028
 1042668:	39fba784 	addi	r7,r7,-4450
 104266c:	1009883a 	mov	r4,r2
 1042670:	180b883a 	mov	r5,r3
 1042674:	1043e700 	call	1043e70 <__adddf3>
 1042678:	900d883a 	mov	r6,r18
 104267c:	880f883a 	mov	r7,r17
 1042680:	1009883a 	mov	r4,r2
 1042684:	180b883a 	mov	r5,r3
 1042688:	10448800 	call	1044880 <__muldf3>
 104268c:	01a02734 	movhi	r6,32924
 1042690:	01cfa4b4 	movhi	r7,16018
 1042694:	3194ab44 	addi	r6,r6,21165
 1042698:	39df93c4 	addi	r7,r7,32335
 104269c:	1009883a 	mov	r4,r2
 10426a0:	180b883a 	mov	r5,r3
 10426a4:	1044f980 	call	1044f98 <__subdf3>
 10426a8:	900d883a 	mov	r6,r18
 10426ac:	880f883a 	mov	r7,r17
 10426b0:	1009883a 	mov	r4,r2
 10426b4:	180b883a 	mov	r5,r3
 10426b8:	10448800 	call	1044880 <__muldf3>
 10426bc:	018672f4 	movhi	r6,6603
 10426c0:	01cfbeb4 	movhi	r7,16122
 10426c4:	31856404 	addi	r6,r6,5520
 10426c8:	39c06804 	addi	r7,r7,416
 10426cc:	1009883a 	mov	r4,r2
 10426d0:	180b883a 	mov	r5,r3
 10426d4:	1043e700 	call	1043e70 <__adddf3>
 10426d8:	900d883a 	mov	r6,r18
 10426dc:	880f883a 	mov	r7,r17
 10426e0:	1009883a 	mov	r4,r2
 10426e4:	180b883a 	mov	r5,r3
 10426e8:	10448800 	call	1044880 <__muldf3>
 10426ec:	0185b074 	movhi	r6,5825
 10426f0:	01cfd5f4 	movhi	r7,16215
 10426f4:	31945dc4 	addi	r6,r6,20855
 10426f8:	39f05b04 	addi	r7,r7,-16020
 10426fc:	1009883a 	mov	r4,r2
 1042700:	180b883a 	mov	r5,r3
 1042704:	1044f980 	call	1044f98 <__subdf3>
 1042708:	900d883a 	mov	r6,r18
 104270c:	880f883a 	mov	r7,r17
 1042710:	1009883a 	mov	r4,r2
 1042714:	180b883a 	mov	r5,r3
 1042718:	10448800 	call	1044880 <__muldf3>
 104271c:	01955574 	movhi	r6,21845
 1042720:	01cfe974 	movhi	r7,16293
 1042724:	31955304 	addi	r6,r6,21836
 1042728:	39d55544 	addi	r7,r7,21845
 104272c:	1009883a 	mov	r4,r2
 1042730:	180b883a 	mov	r5,r3
 1042734:	1043e700 	call	1043e70 <__adddf3>
 1042738:	900d883a 	mov	r6,r18
 104273c:	880f883a 	mov	r7,r17
 1042740:	1009883a 	mov	r4,r2
 1042744:	180b883a 	mov	r5,r3
 1042748:	10448800 	call	1044880 <__muldf3>
 104274c:	1013883a 	mov	r9,r2
 1042750:	1017883a 	mov	r11,r2
 1042754:	008ff4f4 	movhi	r2,16339
 1042758:	108ccc84 	addi	r2,r2,13106
 104275c:	1811883a 	mov	r8,r3
 1042760:	902b883a 	mov	r21,r18
 1042764:	8829883a 	mov	r20,r17
 1042768:	1815883a 	mov	r10,r3
 104276c:	143f880e 	bge	r2,r16,1042590 <__alt_data_end+0xfffc2590>
 1042770:	008ffa74 	movhi	r2,16361
 1042774:	14004416 	blt	r2,r16,1042888 <__kernel_cos+0x484>
 1042778:	00bff834 	movhi	r2,65504
 104277c:	80a1883a 	add	r16,r16,r2
 1042780:	000d883a 	mov	r6,zero
 1042784:	800f883a 	mov	r7,r16
 1042788:	0009883a 	mov	r4,zero
 104278c:	014ffc34 	movhi	r5,16368
 1042790:	da400115 	stw	r9,4(sp)
 1042794:	d8c00215 	stw	r3,8(sp)
 1042798:	1044f980 	call	1044f98 <__subdf3>
 104279c:	da000217 	ldw	r8,8(sp)
 10427a0:	da400117 	ldw	r9,4(sp)
 10427a4:	102b883a 	mov	r21,r2
 10427a8:	d8c00015 	stw	r3,0(sp)
 10427ac:	9009883a 	mov	r4,r18
 10427b0:	880b883a 	mov	r5,r17
 10427b4:	000d883a 	mov	r6,zero
 10427b8:	01cff834 	movhi	r7,16352
 10427bc:	da000215 	stw	r8,8(sp)
 10427c0:	da400115 	stw	r9,4(sp)
 10427c4:	10448800 	call	1044880 <__muldf3>
 10427c8:	800f883a 	mov	r7,r16
 10427cc:	000d883a 	mov	r6,zero
 10427d0:	1009883a 	mov	r4,r2
 10427d4:	180b883a 	mov	r5,r3
 10427d8:	1044f980 	call	1044f98 <__subdf3>
 10427dc:	da400117 	ldw	r9,4(sp)
 10427e0:	da000217 	ldw	r8,8(sp)
 10427e4:	9009883a 	mov	r4,r18
 10427e8:	480d883a 	mov	r6,r9
 10427ec:	400f883a 	mov	r7,r8
 10427f0:	880b883a 	mov	r5,r17
 10427f4:	1029883a 	mov	r20,r2
 10427f8:	1821883a 	mov	r16,r3
 10427fc:	10448800 	call	1044880 <__muldf3>
 1042800:	b80d883a 	mov	r6,r23
 1042804:	e00f883a 	mov	r7,fp
 1042808:	b009883a 	mov	r4,r22
 104280c:	980b883a 	mov	r5,r19
 1042810:	1025883a 	mov	r18,r2
 1042814:	1823883a 	mov	r17,r3
 1042818:	10448800 	call	1044880 <__muldf3>
 104281c:	100d883a 	mov	r6,r2
 1042820:	180f883a 	mov	r7,r3
 1042824:	9009883a 	mov	r4,r18
 1042828:	880b883a 	mov	r5,r17
 104282c:	1044f980 	call	1044f98 <__subdf3>
 1042830:	100d883a 	mov	r6,r2
 1042834:	180f883a 	mov	r7,r3
 1042838:	a009883a 	mov	r4,r20
 104283c:	800b883a 	mov	r5,r16
 1042840:	1044f980 	call	1044f98 <__subdf3>
 1042844:	d9400017 	ldw	r5,0(sp)
 1042848:	100d883a 	mov	r6,r2
 104284c:	180f883a 	mov	r7,r3
 1042850:	a809883a 	mov	r4,r21
 1042854:	1044f980 	call	1044f98 <__subdf3>
 1042858:	dfc00c17 	ldw	ra,48(sp)
 104285c:	df000b17 	ldw	fp,44(sp)
 1042860:	ddc00a17 	ldw	r23,40(sp)
 1042864:	dd800917 	ldw	r22,36(sp)
 1042868:	dd400817 	ldw	r21,32(sp)
 104286c:	dd000717 	ldw	r20,28(sp)
 1042870:	dcc00617 	ldw	r19,24(sp)
 1042874:	dc800517 	ldw	r18,20(sp)
 1042878:	dc400417 	ldw	r17,16(sp)
 104287c:	dc000317 	ldw	r16,12(sp)
 1042880:	dec00d04 	addi	sp,sp,52
 1042884:	f800283a 	ret
 1042888:	008ff9f4 	movhi	r2,16359
 104288c:	002b883a 	mov	r21,zero
 1042890:	d8800015 	stw	r2,0(sp)
 1042894:	040ff4b4 	movhi	r16,16338
 1042898:	003fc406 	br	10427ac <__alt_data_end+0xfffc27ac>
 104289c:	0005883a 	mov	r2,zero
 10428a0:	00cffc34 	movhi	r3,16368
 10428a4:	003fec06 	br	1042858 <__alt_data_end+0xfffc2858>

010428a8 <__kernel_rem_pio2>:
 10428a8:	deff5a04 	addi	sp,sp,-664
 10428ac:	da00a617 	ldw	r8,664(sp)
 10428b0:	00c04174 	movhi	r3,261
 10428b4:	18da7c04 	addi	r3,r3,27120
 10428b8:	4205883a 	add	r2,r8,r8
 10428bc:	1085883a 	add	r2,r2,r2
 10428c0:	1885883a 	add	r2,r3,r2
 10428c4:	d9008e15 	stw	r4,568(sp)
 10428c8:	d9408f15 	stw	r5,572(sp)
 10428cc:	313fff44 	addi	r4,r6,-3
 10428d0:	01400604 	movi	r5,24
 10428d4:	dd80a215 	stw	r22,648(sp)
 10428d8:	dc009c15 	stw	r16,624(sp)
 10428dc:	dfc0a515 	stw	ra,660(sp)
 10428e0:	df00a415 	stw	fp,656(sp)
 10428e4:	ddc0a315 	stw	r23,652(sp)
 10428e8:	dd40a115 	stw	r21,644(sp)
 10428ec:	dd00a015 	stw	r20,640(sp)
 10428f0:	dcc09f15 	stw	r19,636(sp)
 10428f4:	dc809e15 	stw	r18,632(sp)
 10428f8:	dc409d15 	stw	r17,628(sp)
 10428fc:	3021883a 	mov	r16,r6
 1042900:	d9c09315 	stw	r7,588(sp)
 1042904:	15800017 	ldw	r22,0(r2)
 1042908:	1043cbc0 	call	1043cbc <__divsi3>
 104290c:	da009317 	ldw	r8,588(sp)
 1042910:	d8809215 	stw	r2,584(sp)
 1042914:	423fffc4 	addi	r8,r8,-1
 1042918:	da008d15 	stw	r8,564(sp)
 104291c:	10033b16 	blt	r2,zero,104360c <__kernel_rem_pio2+0xd64>
 1042920:	da009217 	ldw	r8,584(sp)
 1042924:	d9009217 	ldw	r4,584(sp)
 1042928:	42000044 	addi	r8,r8,1
 104292c:	40fffa24 	muli	r3,r8,-24
 1042930:	da009515 	stw	r8,596(sp)
 1042934:	da008d17 	ldw	r8,564(sp)
 1042938:	1c07883a 	add	r3,r3,r16
 104293c:	d8c09015 	stw	r3,576(sp)
 1042940:	b205883a 	add	r2,r22,r8
 1042944:	2223c83a 	sub	r17,r4,r8
 1042948:	10001016 	blt	r2,zero,104298c <__kernel_rem_pio2+0xe4>
 104294c:	da00a717 	ldw	r8,668(sp)
 1042950:	8c65883a 	add	r18,r17,r17
 1042954:	94a5883a 	add	r18,r18,r18
 1042958:	1445883a 	add	r2,r2,r17
 104295c:	dcc05004 	addi	r19,sp,320
 1042960:	44a5883a 	add	r18,r8,r18
 1042964:	14000044 	addi	r16,r2,1
 1042968:	88015316 	blt	r17,zero,1042eb8 <__kernel_rem_pio2+0x610>
 104296c:	91000017 	ldw	r4,0(r18)
 1042970:	10459140 	call	1045914 <__floatsidf>
 1042974:	98800015 	stw	r2,0(r19)
 1042978:	98c00115 	stw	r3,4(r19)
 104297c:	8c400044 	addi	r17,r17,1
 1042980:	9cc00204 	addi	r19,r19,8
 1042984:	94800104 	addi	r18,r18,4
 1042988:	8c3ff71e 	bne	r17,r16,1042968 <__alt_data_end+0xfffc2968>
 104298c:	b0002816 	blt	r22,zero,1042a30 <__kernel_rem_pio2+0x188>
 1042990:	da008d17 	ldw	r8,564(sp)
 1042994:	b4c00044 	addi	r19,r22,1
 1042998:	982690fa 	slli	r19,r19,3
 104299c:	402490fa 	slli	r18,r8,3
 10429a0:	da008e17 	ldw	r8,568(sp)
 10429a4:	d8805004 	addi	r2,sp,320
 10429a8:	94000204 	addi	r16,r18,8
 10429ac:	d823883a 	mov	r17,sp
 10429b0:	14a5883a 	add	r18,r2,r18
 10429b4:	dcef883a 	add	r23,sp,r19
 10429b8:	4421883a 	add	r16,r8,r16
 10429bc:	dd809115 	stw	r22,580(sp)
 10429c0:	4039883a 	mov	fp,r8
 10429c4:	da008d17 	ldw	r8,564(sp)
 10429c8:	40016016 	blt	r8,zero,1042f4c <__kernel_rem_pio2+0x6a4>
 10429cc:	e027883a 	mov	r19,fp
 10429d0:	9029883a 	mov	r20,r18
 10429d4:	002d883a 	mov	r22,zero
 10429d8:	002b883a 	mov	r21,zero
 10429dc:	a1800017 	ldw	r6,0(r20)
 10429e0:	a1c00117 	ldw	r7,4(r20)
 10429e4:	99000017 	ldw	r4,0(r19)
 10429e8:	99400117 	ldw	r5,4(r19)
 10429ec:	9cc00204 	addi	r19,r19,8
 10429f0:	a53ffe04 	addi	r20,r20,-8
 10429f4:	10448800 	call	1044880 <__muldf3>
 10429f8:	b009883a 	mov	r4,r22
 10429fc:	a80b883a 	mov	r5,r21
 1042a00:	100d883a 	mov	r6,r2
 1042a04:	180f883a 	mov	r7,r3
 1042a08:	1043e700 	call	1043e70 <__adddf3>
 1042a0c:	102d883a 	mov	r22,r2
 1042a10:	182b883a 	mov	r21,r3
 1042a14:	9c3ff11e 	bne	r19,r16,10429dc <__alt_data_end+0xfffc29dc>
 1042a18:	8d800015 	stw	r22,0(r17)
 1042a1c:	8d400115 	stw	r21,4(r17)
 1042a20:	8c400204 	addi	r17,r17,8
 1042a24:	94800204 	addi	r18,r18,8
 1042a28:	8dffe61e 	bne	r17,r23,10429c4 <__alt_data_end+0xfffc29c4>
 1042a2c:	dd809117 	ldw	r22,580(sp)
 1042a30:	00d00034 	movhi	r3,16384
 1042a34:	da009317 	ldw	r8,588(sp)
 1042a38:	18ffff84 	addi	r3,r3,-2
 1042a3c:	b0c7883a 	add	r3,r22,r3
 1042a40:	18c7883a 	add	r3,r3,r3
 1042a44:	402090fa 	slli	r16,r8,3
 1042a48:	18c7883a 	add	r3,r3,r3
 1042a4c:	da007804 	addi	r8,sp,480
 1042a50:	40d1883a 	add	r8,r8,r3
 1042a54:	b0bfffc4 	addi	r2,r22,-1
 1042a58:	da009615 	stw	r8,600(sp)
 1042a5c:	da008e17 	ldw	r8,568(sp)
 1042a60:	1085883a 	add	r2,r2,r2
 1042a64:	1085883a 	add	r2,r2,r2
 1042a68:	19000104 	addi	r4,r3,4
 1042a6c:	d885883a 	add	r2,sp,r2
 1042a70:	4421883a 	add	r16,r8,r16
 1042a74:	da007804 	addi	r8,sp,480
 1042a78:	4111883a 	add	r8,r8,r4
 1042a7c:	10807804 	addi	r2,r2,480
 1042a80:	da009715 	stw	r8,604(sp)
 1042a84:	b025883a 	mov	r18,r22
 1042a88:	d8809815 	stw	r2,608(sp)
 1042a8c:	dd809415 	stw	r22,592(sp)
 1042a90:	900490fa 	slli	r2,r18,3
 1042a94:	d885883a 	add	r2,sp,r2
 1042a98:	17000017 	ldw	fp,0(r2)
 1042a9c:	15400117 	ldw	r21,4(r2)
 1042aa0:	04802b0e 	bge	zero,r18,1042b50 <__kernel_rem_pio2+0x2a8>
 1042aa4:	00880034 	movhi	r2,8192
 1042aa8:	10bfffc4 	addi	r2,r2,-1
 1042aac:	90a9883a 	add	r20,r18,r2
 1042ab0:	a02890fa 	slli	r20,r20,3
 1042ab4:	dc407804 	addi	r17,sp,480
 1042ab8:	dcfffe04 	addi	r19,sp,-8
 1042abc:	dd29883a 	add	r20,sp,r20
 1042ac0:	000d883a 	mov	r6,zero
 1042ac4:	01cf9c34 	movhi	r7,15984
 1042ac8:	e009883a 	mov	r4,fp
 1042acc:	a80b883a 	mov	r5,r21
 1042ad0:	10448800 	call	1044880 <__muldf3>
 1042ad4:	180b883a 	mov	r5,r3
 1042ad8:	1009883a 	mov	r4,r2
 1042adc:	10458940 	call	1045894 <__fixdfsi>
 1042ae0:	1009883a 	mov	r4,r2
 1042ae4:	10459140 	call	1045914 <__floatsidf>
 1042ae8:	000d883a 	mov	r6,zero
 1042aec:	01d05c34 	movhi	r7,16752
 1042af0:	1009883a 	mov	r4,r2
 1042af4:	180b883a 	mov	r5,r3
 1042af8:	102f883a 	mov	r23,r2
 1042afc:	182d883a 	mov	r22,r3
 1042b00:	10448800 	call	1044880 <__muldf3>
 1042b04:	100d883a 	mov	r6,r2
 1042b08:	180f883a 	mov	r7,r3
 1042b0c:	e009883a 	mov	r4,fp
 1042b10:	a80b883a 	mov	r5,r21
 1042b14:	1044f980 	call	1044f98 <__subdf3>
 1042b18:	180b883a 	mov	r5,r3
 1042b1c:	1009883a 	mov	r4,r2
 1042b20:	10458940 	call	1045894 <__fixdfsi>
 1042b24:	a1800017 	ldw	r6,0(r20)
 1042b28:	a1c00117 	ldw	r7,4(r20)
 1042b2c:	88800015 	stw	r2,0(r17)
 1042b30:	b809883a 	mov	r4,r23
 1042b34:	b00b883a 	mov	r5,r22
 1042b38:	1043e700 	call	1043e70 <__adddf3>
 1042b3c:	a53ffe04 	addi	r20,r20,-8
 1042b40:	1039883a 	mov	fp,r2
 1042b44:	182b883a 	mov	r21,r3
 1042b48:	8c400104 	addi	r17,r17,4
 1042b4c:	a4ffdc1e 	bne	r20,r19,1042ac0 <__alt_data_end+0xfffc2ac0>
 1042b50:	d9809017 	ldw	r6,576(sp)
 1042b54:	a80b883a 	mov	r5,r21
 1042b58:	e009883a 	mov	r4,fp
 1042b5c:	1043b040 	call	1043b04 <scalbn>
 1042b60:	000d883a 	mov	r6,zero
 1042b64:	01cff034 	movhi	r7,16320
 1042b68:	1009883a 	mov	r4,r2
 1042b6c:	180b883a 	mov	r5,r3
 1042b70:	1027883a 	mov	r19,r2
 1042b74:	1823883a 	mov	r17,r3
 1042b78:	10448800 	call	1044880 <__muldf3>
 1042b7c:	1009883a 	mov	r4,r2
 1042b80:	180b883a 	mov	r5,r3
 1042b84:	10439180 	call	1043918 <floor>
 1042b88:	000d883a 	mov	r6,zero
 1042b8c:	01d00834 	movhi	r7,16416
 1042b90:	1009883a 	mov	r4,r2
 1042b94:	180b883a 	mov	r5,r3
 1042b98:	10448800 	call	1044880 <__muldf3>
 1042b9c:	100d883a 	mov	r6,r2
 1042ba0:	180f883a 	mov	r7,r3
 1042ba4:	9809883a 	mov	r4,r19
 1042ba8:	880b883a 	mov	r5,r17
 1042bac:	1044f980 	call	1044f98 <__subdf3>
 1042bb0:	180b883a 	mov	r5,r3
 1042bb4:	1009883a 	mov	r4,r2
 1042bb8:	1827883a 	mov	r19,r3
 1042bbc:	1029883a 	mov	r20,r2
 1042bc0:	10458940 	call	1045894 <__fixdfsi>
 1042bc4:	1009883a 	mov	r4,r2
 1042bc8:	1023883a 	mov	r17,r2
 1042bcc:	10459140 	call	1045914 <__floatsidf>
 1042bd0:	a009883a 	mov	r4,r20
 1042bd4:	100d883a 	mov	r6,r2
 1042bd8:	180f883a 	mov	r7,r3
 1042bdc:	980b883a 	mov	r5,r19
 1042be0:	1044f980 	call	1044f98 <__subdf3>
 1042be4:	d9009017 	ldw	r4,576(sp)
 1042be8:	1013883a 	mov	r9,r2
 1042bec:	102b883a 	mov	r21,r2
 1042bf0:	1811883a 	mov	r8,r3
 1042bf4:	0100b30e 	bge	zero,r4,1042ec4 <__kernel_rem_pio2+0x61c>
 1042bf8:	90bfffc4 	addi	r2,r18,-1
 1042bfc:	1085883a 	add	r2,r2,r2
 1042c00:	1085883a 	add	r2,r2,r2
 1042c04:	d885883a 	add	r2,sp,r2
 1042c08:	10807804 	addi	r2,r2,480
 1042c0c:	d9809017 	ldw	r6,576(sp)
 1042c10:	11400017 	ldw	r5,0(r2)
 1042c14:	01000604 	movi	r4,24
 1042c18:	2189c83a 	sub	r4,r4,r6
 1042c1c:	290dd83a 	sra	r6,r5,r4
 1042c20:	d9c09017 	ldw	r7,576(sp)
 1042c24:	04c005c4 	movi	r19,23
 1042c28:	3108983a 	sll	r4,r6,r4
 1042c2c:	99e7c83a 	sub	r19,r19,r7
 1042c30:	89a3883a 	add	r17,r17,r6
 1042c34:	2909c83a 	sub	r4,r5,r4
 1042c38:	24e7d83a 	sra	r19,r4,r19
 1042c3c:	11000015 	stw	r4,0(r2)
 1042c40:	04c02a0e 	bge	zero,r19,1042cec <__kernel_rem_pio2+0x444>
 1042c44:	8c400044 	addi	r17,r17,1
 1042c48:	0481570e 	bge	zero,r18,10431a8 <__kernel_rem_pio2+0x900>
 1042c4c:	02804034 	movhi	r10,256
 1042c50:	52bfffc4 	addi	r10,r10,-1
 1042c54:	d8807804 	addi	r2,sp,480
 1042c58:	000b883a 	mov	r5,zero
 1042c5c:	0029883a 	mov	r20,zero
 1042c60:	01c04034 	movhi	r7,256
 1042c64:	00000706 	br	1042c84 <__kernel_rem_pio2+0x3dc>
 1042c68:	390dc83a 	sub	r6,r7,r4
 1042c6c:	20000226 	beq	r4,zero,1042c78 <__kernel_rem_pio2+0x3d0>
 1042c70:	11800015 	stw	r6,0(r2)
 1042c74:	05000044 	movi	r20,1
 1042c78:	29400044 	addi	r5,r5,1
 1042c7c:	10800104 	addi	r2,r2,4
 1042c80:	2c80080e 	bge	r5,r18,1042ca4 <__kernel_rem_pio2+0x3fc>
 1042c84:	11000017 	ldw	r4,0(r2)
 1042c88:	a03ff726 	beq	r20,zero,1042c68 <__alt_data_end+0xfffc2c68>
 1042c8c:	5109c83a 	sub	r4,r10,r4
 1042c90:	11000015 	stw	r4,0(r2)
 1042c94:	29400044 	addi	r5,r5,1
 1042c98:	05000044 	movi	r20,1
 1042c9c:	10800104 	addi	r2,r2,4
 1042ca0:	2cbff816 	blt	r5,r18,1042c84 <__alt_data_end+0xfffc2c84>
 1042ca4:	d9009017 	ldw	r4,576(sp)
 1042ca8:	01000e0e 	bge	zero,r4,1042ce4 <__kernel_rem_pio2+0x43c>
 1042cac:	00800044 	movi	r2,1
 1042cb0:	20808d26 	beq	r4,r2,1042ee8 <__kernel_rem_pio2+0x640>
 1042cb4:	00800084 	movi	r2,2
 1042cb8:	20800a1e 	bne	r4,r2,1042ce4 <__kernel_rem_pio2+0x43c>
 1042cbc:	90bfffc4 	addi	r2,r18,-1
 1042cc0:	1085883a 	add	r2,r2,r2
 1042cc4:	1085883a 	add	r2,r2,r2
 1042cc8:	d885883a 	add	r2,sp,r2
 1042ccc:	10807804 	addi	r2,r2,480
 1042cd0:	11400017 	ldw	r5,0(r2)
 1042cd4:	01001034 	movhi	r4,64
 1042cd8:	213fffc4 	addi	r4,r4,-1
 1042cdc:	2908703a 	and	r4,r5,r4
 1042ce0:	11000015 	stw	r4,0(r2)
 1042ce4:	00800084 	movi	r2,2
 1042ce8:	98805d26 	beq	r19,r2,1042e60 <__kernel_rem_pio2+0x5b8>
 1042cec:	400b883a 	mov	r5,r8
 1042cf0:	000d883a 	mov	r6,zero
 1042cf4:	000f883a 	mov	r7,zero
 1042cf8:	a809883a 	mov	r4,r21
 1042cfc:	da009b15 	stw	r8,620(sp)
 1042d00:	104471c0 	call	104471c <__eqdf2>
 1042d04:	da009b17 	ldw	r8,620(sp)
 1042d08:	10012b1e 	bne	r2,zero,10431b8 <__kernel_rem_pio2+0x910>
 1042d0c:	da009417 	ldw	r8,592(sp)
 1042d10:	917fffc4 	addi	r5,r18,-1
 1042d14:	2a000e16 	blt	r5,r8,1042d50 <__kernel_rem_pio2+0x4a8>
 1042d18:	00900034 	movhi	r2,16384
 1042d1c:	10bfffc4 	addi	r2,r2,-1
 1042d20:	9085883a 	add	r2,r18,r2
 1042d24:	1085883a 	add	r2,r2,r2
 1042d28:	d9809717 	ldw	r6,604(sp)
 1042d2c:	1085883a 	add	r2,r2,r2
 1042d30:	d9007804 	addi	r4,sp,480
 1042d34:	0007883a 	mov	r3,zero
 1042d38:	2085883a 	add	r2,r4,r2
 1042d3c:	11000017 	ldw	r4,0(r2)
 1042d40:	10bfff04 	addi	r2,r2,-4
 1042d44:	1906b03a 	or	r3,r3,r4
 1042d48:	11bffc1e 	bne	r2,r6,1042d3c <__alt_data_end+0xfffc2d3c>
 1042d4c:	1800821e 	bne	r3,zero,1042f58 <__kernel_rem_pio2+0x6b0>
 1042d50:	da009817 	ldw	r8,608(sp)
 1042d54:	40800017 	ldw	r2,0(r8)
 1042d58:	1001151e 	bne	r2,zero,10431b0 <__kernel_rem_pio2+0x908>
 1042d5c:	d8809617 	ldw	r2,600(sp)
 1042d60:	05000044 	movi	r20,1
 1042d64:	10bfff04 	addi	r2,r2,-4
 1042d68:	10c00117 	ldw	r3,4(r2)
 1042d6c:	a5000044 	addi	r20,r20,1
 1042d70:	183ffc26 	beq	r3,zero,1042d64 <__alt_data_end+0xfffc2d64>
 1042d74:	9529883a 	add	r20,r18,r20
 1042d78:	90800044 	addi	r2,r18,1
 1042d7c:	dd009115 	stw	r20,580(sp)
 1042d80:	a0803216 	blt	r20,r2,1042e4c <__kernel_rem_pio2+0x5a4>
 1042d84:	da009317 	ldw	r8,588(sp)
 1042d88:	d8c09117 	ldw	r3,580(sp)
 1042d8c:	44a3883a 	add	r17,r8,r18
 1042d90:	da009217 	ldw	r8,584(sp)
 1042d94:	882290fa 	slli	r17,r17,3
 1042d98:	40a5883a 	add	r18,r8,r2
 1042d9c:	da009517 	ldw	r8,596(sp)
 1042da0:	100490fa 	slli	r2,r2,3
 1042da4:	94a5883a 	add	r18,r18,r18
 1042da8:	40eb883a 	add	r21,r8,r3
 1042dac:	da00a717 	ldw	r8,668(sp)
 1042db0:	ad6b883a 	add	r21,r21,r21
 1042db4:	94a5883a 	add	r18,r18,r18
 1042db8:	ad6b883a 	add	r21,r21,r21
 1042dbc:	d8c05004 	addi	r3,sp,320
 1042dc0:	44a5883a 	add	r18,r8,r18
 1042dc4:	1c63883a 	add	r17,r3,r17
 1042dc8:	d8a7883a 	add	r19,sp,r2
 1042dcc:	456b883a 	add	r21,r8,r21
 1042dd0:	91000017 	ldw	r4,0(r18)
 1042dd4:	10459140 	call	1045914 <__floatsidf>
 1042dd8:	da008d17 	ldw	r8,564(sp)
 1042ddc:	88800015 	stw	r2,0(r17)
 1042de0:	88c00115 	stw	r3,4(r17)
 1042de4:	40001b16 	blt	r8,zero,1042e54 <__kernel_rem_pio2+0x5ac>
 1042de8:	dd008e17 	ldw	r20,568(sp)
 1042dec:	882d883a 	mov	r22,r17
 1042df0:	002f883a 	mov	r23,zero
 1042df4:	0039883a 	mov	fp,zero
 1042df8:	b1800017 	ldw	r6,0(r22)
 1042dfc:	b1c00117 	ldw	r7,4(r22)
 1042e00:	a1000017 	ldw	r4,0(r20)
 1042e04:	a1400117 	ldw	r5,4(r20)
 1042e08:	a5000204 	addi	r20,r20,8
 1042e0c:	b5bffe04 	addi	r22,r22,-8
 1042e10:	10448800 	call	1044880 <__muldf3>
 1042e14:	b809883a 	mov	r4,r23
 1042e18:	e00b883a 	mov	r5,fp
 1042e1c:	100d883a 	mov	r6,r2
 1042e20:	180f883a 	mov	r7,r3
 1042e24:	1043e700 	call	1043e70 <__adddf3>
 1042e28:	102f883a 	mov	r23,r2
 1042e2c:	1839883a 	mov	fp,r3
 1042e30:	a43ff11e 	bne	r20,r16,1042df8 <__alt_data_end+0xfffc2df8>
 1042e34:	9dc00015 	stw	r23,0(r19)
 1042e38:	9f000115 	stw	fp,4(r19)
 1042e3c:	94800104 	addi	r18,r18,4
 1042e40:	8c400204 	addi	r17,r17,8
 1042e44:	9cc00204 	addi	r19,r19,8
 1042e48:	957fe11e 	bne	r18,r21,1042dd0 <__alt_data_end+0xfffc2dd0>
 1042e4c:	dc809117 	ldw	r18,580(sp)
 1042e50:	003f0f06 	br	1042a90 <__alt_data_end+0xfffc2a90>
 1042e54:	002f883a 	mov	r23,zero
 1042e58:	0039883a 	mov	fp,zero
 1042e5c:	003ff506 	br	1042e34 <__alt_data_end+0xfffc2e34>
 1042e60:	480d883a 	mov	r6,r9
 1042e64:	180f883a 	mov	r7,r3
 1042e68:	0009883a 	mov	r4,zero
 1042e6c:	014ffc34 	movhi	r5,16368
 1042e70:	1044f980 	call	1044f98 <__subdf3>
 1042e74:	102b883a 	mov	r21,r2
 1042e78:	1811883a 	mov	r8,r3
 1042e7c:	a03f9b26 	beq	r20,zero,1042cec <__alt_data_end+0xfffc2cec>
 1042e80:	d9809017 	ldw	r6,576(sp)
 1042e84:	0009883a 	mov	r4,zero
 1042e88:	014ffc34 	movhi	r5,16368
 1042e8c:	d8c09b15 	stw	r3,620(sp)
 1042e90:	1043b040 	call	1043b04 <scalbn>
 1042e94:	da009b17 	ldw	r8,620(sp)
 1042e98:	a809883a 	mov	r4,r21
 1042e9c:	100d883a 	mov	r6,r2
 1042ea0:	400b883a 	mov	r5,r8
 1042ea4:	180f883a 	mov	r7,r3
 1042ea8:	1044f980 	call	1044f98 <__subdf3>
 1042eac:	102b883a 	mov	r21,r2
 1042eb0:	1811883a 	mov	r8,r3
 1042eb4:	003f8d06 	br	1042cec <__alt_data_end+0xfffc2cec>
 1042eb8:	0005883a 	mov	r2,zero
 1042ebc:	0007883a 	mov	r3,zero
 1042ec0:	003eac06 	br	1042974 <__alt_data_end+0xfffc2974>
 1042ec4:	d8809017 	ldw	r2,576(sp)
 1042ec8:	1000121e 	bne	r2,zero,1042f14 <__kernel_rem_pio2+0x66c>
 1042ecc:	90bfffc4 	addi	r2,r18,-1
 1042ed0:	1085883a 	add	r2,r2,r2
 1042ed4:	1085883a 	add	r2,r2,r2
 1042ed8:	d885883a 	add	r2,sp,r2
 1042edc:	14c07817 	ldw	r19,480(r2)
 1042ee0:	9827d5fa 	srai	r19,r19,23
 1042ee4:	003f5606 	br	1042c40 <__alt_data_end+0xfffc2c40>
 1042ee8:	90bfffc4 	addi	r2,r18,-1
 1042eec:	1085883a 	add	r2,r2,r2
 1042ef0:	1085883a 	add	r2,r2,r2
 1042ef4:	d885883a 	add	r2,sp,r2
 1042ef8:	10807804 	addi	r2,r2,480
 1042efc:	11000017 	ldw	r4,0(r2)
 1042f00:	01402034 	movhi	r5,128
 1042f04:	297fffc4 	addi	r5,r5,-1
 1042f08:	2148703a 	and	r4,r4,r5
 1042f0c:	11000015 	stw	r4,0(r2)
 1042f10:	003f7406 	br	1042ce4 <__alt_data_end+0xfffc2ce4>
 1042f14:	4809883a 	mov	r4,r9
 1042f18:	180b883a 	mov	r5,r3
 1042f1c:	000d883a 	mov	r6,zero
 1042f20:	01cff834 	movhi	r7,16352
 1042f24:	d8c09a15 	stw	r3,616(sp)
 1042f28:	d8c09b15 	stw	r3,620(sp)
 1042f2c:	da409915 	stw	r9,612(sp)
 1042f30:	10447a40 	call	10447a4 <__gedf2>
 1042f34:	d8c09a17 	ldw	r3,616(sp)
 1042f38:	da009b17 	ldw	r8,620(sp)
 1042f3c:	da409917 	ldw	r9,612(sp)
 1042f40:	1000920e 	bge	r2,zero,104318c <__kernel_rem_pio2+0x8e4>
 1042f44:	0027883a 	mov	r19,zero
 1042f48:	003f6806 	br	1042cec <__alt_data_end+0xfffc2cec>
 1042f4c:	002d883a 	mov	r22,zero
 1042f50:	002b883a 	mov	r21,zero
 1042f54:	003eb006 	br	1042a18 <__alt_data_end+0xfffc2a18>
 1042f58:	2945883a 	add	r2,r5,r5
 1042f5c:	da009017 	ldw	r8,576(sp)
 1042f60:	1085883a 	add	r2,r2,r2
 1042f64:	d885883a 	add	r2,sp,r2
 1042f68:	10807817 	ldw	r2,480(r2)
 1042f6c:	423ffa04 	addi	r8,r8,-24
 1042f70:	dc409115 	stw	r17,580(sp)
 1042f74:	dcc08d15 	stw	r19,564(sp)
 1042f78:	da009015 	stw	r8,576(sp)
 1042f7c:	dd809417 	ldw	r22,592(sp)
 1042f80:	2823883a 	mov	r17,r5
 1042f84:	10000e1e 	bne	r2,zero,1042fc0 <__kernel_rem_pio2+0x718>
 1042f88:	00900034 	movhi	r2,16384
 1042f8c:	10bfffc4 	addi	r2,r2,-1
 1042f90:	2885883a 	add	r2,r5,r2
 1042f94:	1085883a 	add	r2,r2,r2
 1042f98:	d8c07804 	addi	r3,sp,480
 1042f9c:	1085883a 	add	r2,r2,r2
 1042fa0:	1885883a 	add	r2,r3,r2
 1042fa4:	4007883a 	mov	r3,r8
 1042fa8:	10bfff04 	addi	r2,r2,-4
 1042fac:	11000117 	ldw	r4,4(r2)
 1042fb0:	8c7fffc4 	addi	r17,r17,-1
 1042fb4:	18fffa04 	addi	r3,r3,-24
 1042fb8:	203ffb26 	beq	r4,zero,1042fa8 <__alt_data_end+0xfffc2fa8>
 1042fbc:	d8c09015 	stw	r3,576(sp)
 1042fc0:	d9809017 	ldw	r6,576(sp)
 1042fc4:	0009883a 	mov	r4,zero
 1042fc8:	014ffc34 	movhi	r5,16368
 1042fcc:	1043b040 	call	1043b04 <scalbn>
 1042fd0:	1029883a 	mov	r20,r2
 1042fd4:	182b883a 	mov	r21,r3
 1042fd8:	88018416 	blt	r17,zero,10435ec <__kernel_rem_pio2+0xd44>
 1042fdc:	881090fa 	slli	r8,r17,3
 1042fe0:	d8c07804 	addi	r3,sp,480
 1042fe4:	da008e15 	stw	r8,568(sp)
 1042fe8:	d8808e17 	ldw	r2,568(sp)
 1042fec:	8c51883a 	add	r8,r17,r17
 1042ff0:	4211883a 	add	r8,r8,r8
 1042ff4:	d8a1883a 	add	r16,sp,r2
 1042ff8:	1a25883a 	add	r18,r3,r8
 1042ffc:	da3ffe04 	addi	r8,sp,-8
 1043000:	da008c15 	stw	r8,560(sp)
 1043004:	8039883a 	mov	fp,r16
 1043008:	91000017 	ldw	r4,0(r18)
 104300c:	e73ffe04 	addi	fp,fp,-8
 1043010:	94bfff04 	addi	r18,r18,-4
 1043014:	10459140 	call	1045914 <__floatsidf>
 1043018:	a00d883a 	mov	r6,r20
 104301c:	a80f883a 	mov	r7,r21
 1043020:	1009883a 	mov	r4,r2
 1043024:	180b883a 	mov	r5,r3
 1043028:	10448800 	call	1044880 <__muldf3>
 104302c:	a009883a 	mov	r4,r20
 1043030:	a80b883a 	mov	r5,r21
 1043034:	e0800215 	stw	r2,8(fp)
 1043038:	e0c00315 	stw	r3,12(fp)
 104303c:	000d883a 	mov	r6,zero
 1043040:	01cf9c34 	movhi	r7,15984
 1043044:	10448800 	call	1044880 <__muldf3>
 1043048:	da008c17 	ldw	r8,560(sp)
 104304c:	1029883a 	mov	r20,r2
 1043050:	182b883a 	mov	r21,r3
 1043054:	e23fec1e 	bne	fp,r8,1043008 <__alt_data_end+0xfffc3008>
 1043058:	0029883a 	mov	r20,zero
 104305c:	b0004f16 	blt	r22,zero,104319c <__kernel_rem_pio2+0x8f4>
 1043060:	05404174 	movhi	r21,261
 1043064:	014ffe74 	movhi	r5,16377
 1043068:	ad5a6e04 	addi	r21,r21,27064
 104306c:	8027883a 	mov	r19,r16
 1043070:	01100034 	movhi	r4,16384
 1043074:	29487ec4 	addi	r5,r5,8699
 1043078:	0039883a 	mov	fp,zero
 104307c:	002f883a 	mov	r23,zero
 1043080:	0025883a 	mov	r18,zero
 1043084:	00000506 	br	104309c <__kernel_rem_pio2+0x7f4>
 1043088:	9cc00204 	addi	r19,r19,8
 104308c:	a4800f16 	blt	r20,r18,10430cc <__kernel_rem_pio2+0x824>
 1043090:	a9000017 	ldw	r4,0(r21)
 1043094:	a9400117 	ldw	r5,4(r21)
 1043098:	ad400204 	addi	r21,r21,8
 104309c:	99800017 	ldw	r6,0(r19)
 10430a0:	99c00117 	ldw	r7,4(r19)
 10430a4:	94800044 	addi	r18,r18,1
 10430a8:	10448800 	call	1044880 <__muldf3>
 10430ac:	e009883a 	mov	r4,fp
 10430b0:	b80b883a 	mov	r5,r23
 10430b4:	100d883a 	mov	r6,r2
 10430b8:	180f883a 	mov	r7,r3
 10430bc:	1043e700 	call	1043e70 <__adddf3>
 10430c0:	1039883a 	mov	fp,r2
 10430c4:	182f883a 	mov	r23,r3
 10430c8:	b4bfef0e 	bge	r22,r18,1043088 <__alt_data_end+0xfffc3088>
 10430cc:	a00490fa 	slli	r2,r20,3
 10430d0:	da008c17 	ldw	r8,560(sp)
 10430d4:	843ffe04 	addi	r16,r16,-8
 10430d8:	d885883a 	add	r2,sp,r2
 10430dc:	10802804 	addi	r2,r2,160
 10430e0:	17000015 	stw	fp,0(r2)
 10430e4:	15c00115 	stw	r23,4(r2)
 10430e8:	a5000044 	addi	r20,r20,1
 10430ec:	823fdb1e 	bne	r16,r8,104305c <__alt_data_end+0xfffc305c>
 10430f0:	da00a617 	ldw	r8,664(sp)
 10430f4:	00800084 	movi	r2,2
 10430f8:	12006616 	blt	r2,r8,1043294 <__kernel_rem_pio2+0x9ec>
 10430fc:	0200de16 	blt	zero,r8,1043478 <__kernel_rem_pio2+0xbd0>
 1043100:	4000141e 	bne	r8,zero,1043154 <__kernel_rem_pio2+0x8ac>
 1043104:	da008e17 	ldw	r8,568(sp)
 1043108:	d8802804 	addi	r2,sp,160
 104310c:	0007883a 	mov	r3,zero
 1043110:	1225883a 	add	r18,r2,r8
 1043114:	043fffc4 	movi	r16,-1
 1043118:	0005883a 	mov	r2,zero
 104311c:	91800017 	ldw	r6,0(r18)
 1043120:	91c00117 	ldw	r7,4(r18)
 1043124:	1009883a 	mov	r4,r2
 1043128:	180b883a 	mov	r5,r3
 104312c:	8c7fffc4 	addi	r17,r17,-1
 1043130:	1043e700 	call	1043e70 <__adddf3>
 1043134:	94bffe04 	addi	r18,r18,-8
 1043138:	8c3ff81e 	bne	r17,r16,104311c <__alt_data_end+0xfffc311c>
 104313c:	da008d17 	ldw	r8,564(sp)
 1043140:	40000126 	beq	r8,zero,1043148 <__kernel_rem_pio2+0x8a0>
 1043144:	18e0003c 	xorhi	r3,r3,32768
 1043148:	da008f17 	ldw	r8,572(sp)
 104314c:	40800015 	stw	r2,0(r8)
 1043150:	40c00115 	stw	r3,4(r8)
 1043154:	da009117 	ldw	r8,580(sp)
 1043158:	408001cc 	andi	r2,r8,7
 104315c:	dfc0a517 	ldw	ra,660(sp)
 1043160:	df00a417 	ldw	fp,656(sp)
 1043164:	ddc0a317 	ldw	r23,652(sp)
 1043168:	dd80a217 	ldw	r22,648(sp)
 104316c:	dd40a117 	ldw	r21,644(sp)
 1043170:	dd00a017 	ldw	r20,640(sp)
 1043174:	dcc09f17 	ldw	r19,636(sp)
 1043178:	dc809e17 	ldw	r18,632(sp)
 104317c:	dc409d17 	ldw	r17,628(sp)
 1043180:	dc009c17 	ldw	r16,624(sp)
 1043184:	dec0a604 	addi	sp,sp,664
 1043188:	f800283a 	ret
 104318c:	8c400044 	addi	r17,r17,1
 1043190:	04810d0e 	bge	zero,r18,10435c8 <__kernel_rem_pio2+0xd20>
 1043194:	04c00084 	movi	r19,2
 1043198:	003eac06 	br	1042c4c <__alt_data_end+0xfffc2c4c>
 104319c:	0039883a 	mov	fp,zero
 10431a0:	002f883a 	mov	r23,zero
 10431a4:	003fc906 	br	10430cc <__alt_data_end+0xfffc30cc>
 10431a8:	0029883a 	mov	r20,zero
 10431ac:	003ebd06 	br	1042ca4 <__alt_data_end+0xfffc2ca4>
 10431b0:	05000044 	movi	r20,1
 10431b4:	003eef06 	br	1042d74 <__alt_data_end+0xfffc2d74>
 10431b8:	4029883a 	mov	r20,r8
 10431bc:	da009017 	ldw	r8,576(sp)
 10431c0:	a809883a 	mov	r4,r21
 10431c4:	a00b883a 	mov	r5,r20
 10431c8:	020dc83a 	sub	r6,zero,r8
 10431cc:	dc409115 	stw	r17,580(sp)
 10431d0:	dd809417 	ldw	r22,592(sp)
 10431d4:	dcc08d15 	stw	r19,564(sp)
 10431d8:	1043b040 	call	1043b04 <scalbn>
 10431dc:	000d883a 	mov	r6,zero
 10431e0:	01d05c34 	movhi	r7,16752
 10431e4:	1009883a 	mov	r4,r2
 10431e8:	180b883a 	mov	r5,r3
 10431ec:	102b883a 	mov	r21,r2
 10431f0:	1823883a 	mov	r17,r3
 10431f4:	10447a40 	call	10447a4 <__gedf2>
 10431f8:	1000e916 	blt	r2,zero,10435a0 <__kernel_rem_pio2+0xcf8>
 10431fc:	000d883a 	mov	r6,zero
 1043200:	01cf9c34 	movhi	r7,15984
 1043204:	880b883a 	mov	r5,r17
 1043208:	a809883a 	mov	r4,r21
 104320c:	10448800 	call	1044880 <__muldf3>
 1043210:	180b883a 	mov	r5,r3
 1043214:	1009883a 	mov	r4,r2
 1043218:	10458940 	call	1045894 <__fixdfsi>
 104321c:	1029883a 	mov	r20,r2
 1043220:	9485883a 	add	r2,r18,r18
 1043224:	1085883a 	add	r2,r2,r2
 1043228:	a009883a 	mov	r4,r20
 104322c:	d8a1883a 	add	r16,sp,r2
 1043230:	10459140 	call	1045914 <__floatsidf>
 1043234:	000d883a 	mov	r6,zero
 1043238:	01d05c34 	movhi	r7,16752
 104323c:	1009883a 	mov	r4,r2
 1043240:	180b883a 	mov	r5,r3
 1043244:	10448800 	call	1044880 <__muldf3>
 1043248:	880b883a 	mov	r5,r17
 104324c:	100d883a 	mov	r6,r2
 1043250:	180f883a 	mov	r7,r3
 1043254:	a809883a 	mov	r4,r21
 1043258:	1044f980 	call	1044f98 <__subdf3>
 104325c:	180b883a 	mov	r5,r3
 1043260:	1009883a 	mov	r4,r2
 1043264:	10458940 	call	1045894 <__fixdfsi>
 1043268:	da009017 	ldw	r8,576(sp)
 104326c:	94400044 	addi	r17,r18,1
 1043270:	8c47883a 	add	r3,r17,r17
 1043274:	84007804 	addi	r16,r16,480
 1043278:	18c7883a 	add	r3,r3,r3
 104327c:	80800015 	stw	r2,0(r16)
 1043280:	d8c7883a 	add	r3,sp,r3
 1043284:	42000604 	addi	r8,r8,24
 1043288:	da009015 	stw	r8,576(sp)
 104328c:	1d007815 	stw	r20,480(r3)
 1043290:	003f4b06 	br	1042fc0 <__alt_data_end+0xfffc2fc0>
 1043294:	da00a617 	ldw	r8,664(sp)
 1043298:	008000c4 	movi	r2,3
 104329c:	40bfad1e 	bne	r8,r2,1043154 <__alt_data_end+0xfffc3154>
 10432a0:	0440bc0e 	bge	zero,r17,1043594 <__kernel_rem_pio2+0xcec>
 10432a4:	da008e17 	ldw	r8,568(sp)
 10432a8:	882090fa 	slli	r16,r17,3
 10432ac:	dd402804 	addi	r21,sp,160
 10432b0:	da05883a 	add	r2,sp,r8
 10432b4:	10802804 	addi	r2,r2,160
 10432b8:	15c00017 	ldw	r23,0(r2)
 10432bc:	15800117 	ldw	r22,4(r2)
 10432c0:	8029883a 	mov	r20,r16
 10432c4:	843ffe04 	addi	r16,r16,-8
 10432c8:	ac21883a 	add	r16,r21,r16
 10432cc:	ad29883a 	add	r20,r21,r20
 10432d0:	dac02604 	addi	r11,sp,152
 10432d4:	8811883a 	mov	r8,r17
 10432d8:	84400017 	ldw	r17,0(r16)
 10432dc:	87000117 	ldw	fp,4(r16)
 10432e0:	b80d883a 	mov	r6,r23
 10432e4:	b00f883a 	mov	r7,r22
 10432e8:	8809883a 	mov	r4,r17
 10432ec:	e00b883a 	mov	r5,fp
 10432f0:	da009b15 	stw	r8,620(sp)
 10432f4:	dac09915 	stw	r11,612(sp)
 10432f8:	1043e700 	call	1043e70 <__adddf3>
 10432fc:	100d883a 	mov	r6,r2
 1043300:	180f883a 	mov	r7,r3
 1043304:	8809883a 	mov	r4,r17
 1043308:	e00b883a 	mov	r5,fp
 104330c:	1027883a 	mov	r19,r2
 1043310:	1825883a 	mov	r18,r3
 1043314:	1044f980 	call	1044f98 <__subdf3>
 1043318:	b80d883a 	mov	r6,r23
 104331c:	b00f883a 	mov	r7,r22
 1043320:	1009883a 	mov	r4,r2
 1043324:	180b883a 	mov	r5,r3
 1043328:	1043e700 	call	1043e70 <__adddf3>
 104332c:	dac09917 	ldw	r11,612(sp)
 1043330:	a0800015 	stw	r2,0(r20)
 1043334:	a0c00115 	stw	r3,4(r20)
 1043338:	84c00015 	stw	r19,0(r16)
 104333c:	84800115 	stw	r18,4(r16)
 1043340:	843ffe04 	addi	r16,r16,-8
 1043344:	a53ffe04 	addi	r20,r20,-8
 1043348:	982f883a 	mov	r23,r19
 104334c:	902d883a 	mov	r22,r18
 1043350:	da009b17 	ldw	r8,620(sp)
 1043354:	5c3fe01e 	bne	r11,r16,10432d8 <__alt_data_end+0xfffc32d8>
 1043358:	00800044 	movi	r2,1
 104335c:	12008d0e 	bge	r2,r8,1043594 <__kernel_rem_pio2+0xcec>
 1043360:	402090fa 	slli	r16,r8,3
 1043364:	da008e17 	ldw	r8,568(sp)
 1043368:	8023883a 	mov	r17,r16
 104336c:	da05883a 	add	r2,sp,r8
 1043370:	10802804 	addi	r2,r2,160
 1043374:	15800017 	ldw	r22,0(r2)
 1043378:	15000117 	ldw	r20,4(r2)
 104337c:	ac63883a 	add	r17,r21,r17
 1043380:	843ffe04 	addi	r16,r16,-8
 1043384:	ac21883a 	add	r16,r21,r16
 1043388:	8825883a 	mov	r18,r17
 104338c:	8811883a 	mov	r8,r17
 1043390:	84400017 	ldw	r17,0(r16)
 1043394:	87000117 	ldw	fp,4(r16)
 1043398:	b009883a 	mov	r4,r22
 104339c:	a00b883a 	mov	r5,r20
 10433a0:	880d883a 	mov	r6,r17
 10433a4:	e00f883a 	mov	r7,fp
 10433a8:	da009b15 	stw	r8,620(sp)
 10433ac:	1043e700 	call	1043e70 <__adddf3>
 10433b0:	100d883a 	mov	r6,r2
 10433b4:	180f883a 	mov	r7,r3
 10433b8:	8809883a 	mov	r4,r17
 10433bc:	e00b883a 	mov	r5,fp
 10433c0:	102f883a 	mov	r23,r2
 10433c4:	1827883a 	mov	r19,r3
 10433c8:	1044f980 	call	1044f98 <__subdf3>
 10433cc:	b00d883a 	mov	r6,r22
 10433d0:	a00f883a 	mov	r7,r20
 10433d4:	1009883a 	mov	r4,r2
 10433d8:	180b883a 	mov	r5,r3
 10433dc:	1043e700 	call	1043e70 <__adddf3>
 10433e0:	90800015 	stw	r2,0(r18)
 10433e4:	90c00115 	stw	r3,4(r18)
 10433e8:	85c00015 	stw	r23,0(r16)
 10433ec:	84c00115 	stw	r19,4(r16)
 10433f0:	843ffe04 	addi	r16,r16,-8
 10433f4:	94bffe04 	addi	r18,r18,-8
 10433f8:	b82d883a 	mov	r22,r23
 10433fc:	9829883a 	mov	r20,r19
 1043400:	da009b17 	ldw	r8,620(sp)
 1043404:	ac3fe21e 	bne	r21,r16,1043390 <__alt_data_end+0xfffc3390>
 1043408:	4023883a 	mov	r17,r8
 104340c:	dc002a04 	addi	r16,sp,168
 1043410:	0005883a 	mov	r2,zero
 1043414:	0007883a 	mov	r3,zero
 1043418:	89800017 	ldw	r6,0(r17)
 104341c:	89c00117 	ldw	r7,4(r17)
 1043420:	1009883a 	mov	r4,r2
 1043424:	8c7ffe04 	addi	r17,r17,-8
 1043428:	180b883a 	mov	r5,r3
 104342c:	1043e700 	call	1043e70 <__adddf3>
 1043430:	847ff91e 	bne	r16,r17,1043418 <__alt_data_end+0xfffc3418>
 1043434:	da008d17 	ldw	r8,564(sp)
 1043438:	40004726 	beq	r8,zero,1043558 <__kernel_rem_pio2+0xcb0>
 104343c:	d9002b17 	ldw	r4,172(sp)
 1043440:	d9402917 	ldw	r5,164(sp)
 1043444:	d9802a17 	ldw	r6,168(sp)
 1043448:	da008f17 	ldw	r8,572(sp)
 104344c:	d9c02817 	ldw	r7,160(sp)
 1043450:	2960003c 	xorhi	r5,r5,32768
 1043454:	2120003c 	xorhi	r4,r4,32768
 1043458:	18e0003c 	xorhi	r3,r3,32768
 104345c:	41c00015 	stw	r7,0(r8)
 1043460:	41400115 	stw	r5,4(r8)
 1043464:	41800215 	stw	r6,8(r8)
 1043468:	41000315 	stw	r4,12(r8)
 104346c:	40800415 	stw	r2,16(r8)
 1043470:	40c00515 	stw	r3,20(r8)
 1043474:	003f3706 	br	1043154 <__alt_data_end+0xfffc3154>
 1043478:	da008e17 	ldw	r8,568(sp)
 104347c:	d8802804 	addi	r2,sp,160
 1043480:	dc002604 	addi	r16,sp,152
 1043484:	1225883a 	add	r18,r2,r8
 1043488:	0007883a 	mov	r3,zero
 104348c:	0005883a 	mov	r2,zero
 1043490:	91800017 	ldw	r6,0(r18)
 1043494:	91c00117 	ldw	r7,4(r18)
 1043498:	1009883a 	mov	r4,r2
 104349c:	94bffe04 	addi	r18,r18,-8
 10434a0:	180b883a 	mov	r5,r3
 10434a4:	1043e700 	call	1043e70 <__adddf3>
 10434a8:	943ff91e 	bne	r18,r16,1043490 <__alt_data_end+0xfffc3490>
 10434ac:	da008d17 	ldw	r8,564(sp)
 10434b0:	d9002817 	ldw	r4,160(sp)
 10434b4:	d9402917 	ldw	r5,164(sp)
 10434b8:	40001a26 	beq	r8,zero,1043524 <__kernel_rem_pio2+0xc7c>
 10434bc:	da008f17 	ldw	r8,572(sp)
 10434c0:	19a0003c 	xorhi	r6,r3,32768
 10434c4:	180f883a 	mov	r7,r3
 10434c8:	41800115 	stw	r6,4(r8)
 10434cc:	40800015 	stw	r2,0(r8)
 10434d0:	100d883a 	mov	r6,r2
 10434d4:	1044f980 	call	1044f98 <__subdf3>
 10434d8:	04400c0e 	bge	zero,r17,104350c <__kernel_rem_pio2+0xc64>
 10434dc:	dc002a04 	addi	r16,sp,168
 10434e0:	04800044 	movi	r18,1
 10434e4:	81800017 	ldw	r6,0(r16)
 10434e8:	81c00117 	ldw	r7,4(r16)
 10434ec:	1009883a 	mov	r4,r2
 10434f0:	180b883a 	mov	r5,r3
 10434f4:	94800044 	addi	r18,r18,1
 10434f8:	1043e700 	call	1043e70 <__adddf3>
 10434fc:	84000204 	addi	r16,r16,8
 1043500:	8cbff80e 	bge	r17,r18,10434e4 <__alt_data_end+0xfffc34e4>
 1043504:	da008d17 	ldw	r8,564(sp)
 1043508:	40004226 	beq	r8,zero,1043614 <__kernel_rem_pio2+0xd6c>
 104350c:	da008f17 	ldw	r8,572(sp)
 1043510:	1009883a 	mov	r4,r2
 1043514:	18a0003c 	xorhi	r2,r3,32768
 1043518:	41000215 	stw	r4,8(r8)
 104351c:	40800315 	stw	r2,12(r8)
 1043520:	003f0c06 	br	1043154 <__alt_data_end+0xfffc3154>
 1043524:	da008f17 	ldw	r8,572(sp)
 1043528:	100d883a 	mov	r6,r2
 104352c:	180f883a 	mov	r7,r3
 1043530:	40800015 	stw	r2,0(r8)
 1043534:	40c00115 	stw	r3,4(r8)
 1043538:	1044f980 	call	1044f98 <__subdf3>
 104353c:	047fe716 	blt	zero,r17,10434dc <__alt_data_end+0xfffc34dc>
 1043540:	da008f17 	ldw	r8,572(sp)
 1043544:	1009883a 	mov	r4,r2
 1043548:	1805883a 	mov	r2,r3
 104354c:	41000215 	stw	r4,8(r8)
 1043550:	40800315 	stw	r2,12(r8)
 1043554:	003eff06 	br	1043154 <__alt_data_end+0xfffc3154>
 1043558:	da008f17 	ldw	r8,572(sp)
 104355c:	d9802817 	ldw	r6,160(sp)
 1043560:	d9402a17 	ldw	r5,168(sp)
 1043564:	d9002b17 	ldw	r4,172(sp)
 1043568:	41800015 	stw	r6,0(r8)
 104356c:	d9802917 	ldw	r6,164(sp)
 1043570:	41400215 	stw	r5,8(r8)
 1043574:	41000315 	stw	r4,12(r8)
 1043578:	41800115 	stw	r6,4(r8)
 104357c:	40800415 	stw	r2,16(r8)
 1043580:	40c00515 	stw	r3,20(r8)
 1043584:	003ef306 	br	1043154 <__alt_data_end+0xfffc3154>
 1043588:	da00a617 	ldw	r8,664(sp)
 104358c:	008000c4 	movi	r2,3
 1043590:	40bef01e 	bne	r8,r2,1043154 <__alt_data_end+0xfffc3154>
 1043594:	0005883a 	mov	r2,zero
 1043598:	0007883a 	mov	r3,zero
 104359c:	003fa506 	br	1043434 <__alt_data_end+0xfffc3434>
 10435a0:	9485883a 	add	r2,r18,r18
 10435a4:	1085883a 	add	r2,r2,r2
 10435a8:	d8a1883a 	add	r16,sp,r2
 10435ac:	880b883a 	mov	r5,r17
 10435b0:	a809883a 	mov	r4,r21
 10435b4:	84007804 	addi	r16,r16,480
 10435b8:	10458940 	call	1045894 <__fixdfsi>
 10435bc:	80800015 	stw	r2,0(r16)
 10435c0:	9023883a 	mov	r17,r18
 10435c4:	003e7e06 	br	1042fc0 <__alt_data_end+0xfffc2fc0>
 10435c8:	a80d883a 	mov	r6,r21
 10435cc:	400f883a 	mov	r7,r8
 10435d0:	0009883a 	mov	r4,zero
 10435d4:	014ffc34 	movhi	r5,16368
 10435d8:	1044f980 	call	1044f98 <__subdf3>
 10435dc:	102b883a 	mov	r21,r2
 10435e0:	1811883a 	mov	r8,r3
 10435e4:	04c00084 	movi	r19,2
 10435e8:	003dc006 	br	1042cec <__alt_data_end+0xfffc2cec>
 10435ec:	da00a617 	ldw	r8,664(sp)
 10435f0:	00800084 	movi	r2,2
 10435f4:	123fe416 	blt	r2,r8,1043588 <__alt_data_end+0xfffc3588>
 10435f8:	02000c16 	blt	zero,r8,104362c <__kernel_rem_pio2+0xd84>
 10435fc:	403ed51e 	bne	r8,zero,1043154 <__alt_data_end+0xfffc3154>
 1043600:	0005883a 	mov	r2,zero
 1043604:	0007883a 	mov	r3,zero
 1043608:	003ecc06 	br	104313c <__alt_data_end+0xfffc313c>
 104360c:	d8009215 	stw	zero,584(sp)
 1043610:	003cc306 	br	1042920 <__alt_data_end+0xfffc2920>
 1043614:	da008f17 	ldw	r8,572(sp)
 1043618:	1009883a 	mov	r4,r2
 104361c:	1805883a 	mov	r2,r3
 1043620:	41000215 	stw	r4,8(r8)
 1043624:	40800315 	stw	r2,12(r8)
 1043628:	003eca06 	br	1043154 <__alt_data_end+0xfffc3154>
 104362c:	0005883a 	mov	r2,zero
 1043630:	0007883a 	mov	r3,zero
 1043634:	003f9d06 	br	10434ac <__alt_data_end+0xfffc34ac>

01043638 <__kernel_sin>:
 1043638:	00a00034 	movhi	r2,32768
 104363c:	defff404 	addi	sp,sp,-48
 1043640:	10bfffc4 	addi	r2,r2,-1
 1043644:	00cf9034 	movhi	r3,15936
 1043648:	ddc00915 	stw	r23,36(sp)
 104364c:	dd800815 	stw	r22,32(sp)
 1043650:	dc400315 	stw	r17,12(sp)
 1043654:	dc000215 	stw	r16,8(sp)
 1043658:	dfc00b15 	stw	ra,44(sp)
 104365c:	df000a15 	stw	fp,40(sp)
 1043660:	dd400715 	stw	r21,28(sp)
 1043664:	dd000615 	stw	r20,24(sp)
 1043668:	dcc00515 	stw	r19,20(sp)
 104366c:	dc800415 	stw	r18,16(sp)
 1043670:	2884703a 	and	r2,r5,r2
 1043674:	18ffffc4 	addi	r3,r3,-1
 1043678:	2821883a 	mov	r16,r5
 104367c:	2023883a 	mov	r17,r4
 1043680:	302f883a 	mov	r23,r6
 1043684:	382d883a 	mov	r22,r7
 1043688:	18800216 	blt	r3,r2,1043694 <__kernel_sin+0x5c>
 104368c:	10458940 	call	1045894 <__fixdfsi>
 1043690:	10009926 	beq	r2,zero,10438f8 <__kernel_sin+0x2c0>
 1043694:	880d883a 	mov	r6,r17
 1043698:	800f883a 	mov	r7,r16
 104369c:	8809883a 	mov	r4,r17
 10436a0:	800b883a 	mov	r5,r16
 10436a4:	10448800 	call	1044880 <__muldf3>
 10436a8:	100d883a 	mov	r6,r2
 10436ac:	180f883a 	mov	r7,r3
 10436b0:	8809883a 	mov	r4,r17
 10436b4:	800b883a 	mov	r5,r16
 10436b8:	1027883a 	mov	r19,r2
 10436bc:	1825883a 	mov	r18,r3
 10436c0:	10448800 	call	1044880 <__muldf3>
 10436c4:	0196b434 	movhi	r6,23248
 10436c8:	01cf79b4 	movhi	r7,15846
 10436cc:	31b55f04 	addi	r6,r6,-10884
 10436d0:	39f64e84 	addi	r7,r7,-9926
 10436d4:	9809883a 	mov	r4,r19
 10436d8:	900b883a 	mov	r5,r18
 10436dc:	102b883a 	mov	r21,r2
 10436e0:	1829883a 	mov	r20,r3
 10436e4:	10448800 	call	1044880 <__muldf3>
 10436e8:	01a28b34 	movhi	r6,35372
 10436ec:	01cf96f4 	movhi	r7,15963
 10436f0:	31a73ac4 	addi	r6,r6,-25365
 10436f4:	39f97984 	addi	r7,r7,-6682
 10436f8:	1009883a 	mov	r4,r2
 10436fc:	180b883a 	mov	r5,r3
 1043700:	1044f980 	call	1044f98 <__subdf3>
 1043704:	980d883a 	mov	r6,r19
 1043708:	900f883a 	mov	r7,r18
 104370c:	1009883a 	mov	r4,r2
 1043710:	180b883a 	mov	r5,r3
 1043714:	10448800 	call	1044880 <__muldf3>
 1043718:	0195ecb4 	movhi	r6,22450
 104371c:	01cfb1f4 	movhi	r7,16071
 1043720:	31bf9f44 	addi	r6,r6,-387
 1043724:	39c778c4 	addi	r7,r7,7651
 1043728:	1009883a 	mov	r4,r2
 104372c:	180b883a 	mov	r5,r3
 1043730:	1043e700 	call	1043e70 <__adddf3>
 1043734:	980d883a 	mov	r6,r19
 1043738:	900f883a 	mov	r7,r18
 104373c:	1009883a 	mov	r4,r2
 1043740:	180b883a 	mov	r5,r3
 1043744:	10448800 	call	1044880 <__muldf3>
 1043748:	01867074 	movhi	r6,6593
 104374c:	01cfcab4 	movhi	r7,16170
 1043750:	31987544 	addi	r6,r6,25045
 1043754:	39c06804 	addi	r7,r7,416
 1043758:	1009883a 	mov	r4,r2
 104375c:	180b883a 	mov	r5,r3
 1043760:	1044f980 	call	1044f98 <__subdf3>
 1043764:	980d883a 	mov	r6,r19
 1043768:	900f883a 	mov	r7,r18
 104376c:	1009883a 	mov	r4,r2
 1043770:	180b883a 	mov	r5,r3
 1043774:	10448800 	call	1044880 <__muldf3>
 1043778:	01844474 	movhi	r6,4369
 104377c:	01cfe074 	movhi	r7,16257
 1043780:	31be2984 	addi	r6,r6,-1882
 1043784:	39c44444 	addi	r7,r7,4369
 1043788:	1009883a 	mov	r4,r2
 104378c:	180b883a 	mov	r5,r3
 1043790:	1043e700 	call	1043e70 <__adddf3>
 1043794:	1011883a 	mov	r8,r2
 1043798:	d8800c17 	ldw	r2,48(sp)
 104379c:	1839883a 	mov	fp,r3
 10437a0:	10003e26 	beq	r2,zero,104389c <__kernel_sin+0x264>
 10437a4:	000d883a 	mov	r6,zero
 10437a8:	01cff834 	movhi	r7,16352
 10437ac:	b809883a 	mov	r4,r23
 10437b0:	b00b883a 	mov	r5,r22
 10437b4:	da000015 	stw	r8,0(sp)
 10437b8:	10448800 	call	1044880 <__muldf3>
 10437bc:	da000017 	ldw	r8,0(sp)
 10437c0:	e00f883a 	mov	r7,fp
 10437c4:	a809883a 	mov	r4,r21
 10437c8:	400d883a 	mov	r6,r8
 10437cc:	a00b883a 	mov	r5,r20
 10437d0:	d8c00115 	stw	r3,4(sp)
 10437d4:	d8800015 	stw	r2,0(sp)
 10437d8:	10448800 	call	1044880 <__muldf3>
 10437dc:	da800017 	ldw	r10,0(sp)
 10437e0:	da400117 	ldw	r9,4(sp)
 10437e4:	100d883a 	mov	r6,r2
 10437e8:	5009883a 	mov	r4,r10
 10437ec:	480b883a 	mov	r5,r9
 10437f0:	180f883a 	mov	r7,r3
 10437f4:	1044f980 	call	1044f98 <__subdf3>
 10437f8:	980d883a 	mov	r6,r19
 10437fc:	900f883a 	mov	r7,r18
 1043800:	1009883a 	mov	r4,r2
 1043804:	180b883a 	mov	r5,r3
 1043808:	10448800 	call	1044880 <__muldf3>
 104380c:	b80d883a 	mov	r6,r23
 1043810:	b00f883a 	mov	r7,r22
 1043814:	1009883a 	mov	r4,r2
 1043818:	180b883a 	mov	r5,r3
 104381c:	1044f980 	call	1044f98 <__subdf3>
 1043820:	01955574 	movhi	r6,21845
 1043824:	01cff174 	movhi	r7,16325
 1043828:	31955244 	addi	r6,r6,21833
 104382c:	39d55544 	addi	r7,r7,21845
 1043830:	a809883a 	mov	r4,r21
 1043834:	a00b883a 	mov	r5,r20
 1043838:	1027883a 	mov	r19,r2
 104383c:	1825883a 	mov	r18,r3
 1043840:	10448800 	call	1044880 <__muldf3>
 1043844:	100d883a 	mov	r6,r2
 1043848:	180f883a 	mov	r7,r3
 104384c:	9809883a 	mov	r4,r19
 1043850:	900b883a 	mov	r5,r18
 1043854:	1043e700 	call	1043e70 <__adddf3>
 1043858:	100d883a 	mov	r6,r2
 104385c:	180f883a 	mov	r7,r3
 1043860:	8809883a 	mov	r4,r17
 1043864:	800b883a 	mov	r5,r16
 1043868:	1044f980 	call	1044f98 <__subdf3>
 104386c:	dfc00b17 	ldw	ra,44(sp)
 1043870:	df000a17 	ldw	fp,40(sp)
 1043874:	ddc00917 	ldw	r23,36(sp)
 1043878:	dd800817 	ldw	r22,32(sp)
 104387c:	dd400717 	ldw	r21,28(sp)
 1043880:	dd000617 	ldw	r20,24(sp)
 1043884:	dcc00517 	ldw	r19,20(sp)
 1043888:	dc800417 	ldw	r18,16(sp)
 104388c:	dc400317 	ldw	r17,12(sp)
 1043890:	dc000217 	ldw	r16,8(sp)
 1043894:	dec00c04 	addi	sp,sp,48
 1043898:	f800283a 	ret
 104389c:	400d883a 	mov	r6,r8
 10438a0:	9809883a 	mov	r4,r19
 10438a4:	900b883a 	mov	r5,r18
 10438a8:	180f883a 	mov	r7,r3
 10438ac:	10448800 	call	1044880 <__muldf3>
 10438b0:	01955574 	movhi	r6,21845
 10438b4:	01cff174 	movhi	r7,16325
 10438b8:	31955244 	addi	r6,r6,21833
 10438bc:	39d55544 	addi	r7,r7,21845
 10438c0:	1009883a 	mov	r4,r2
 10438c4:	180b883a 	mov	r5,r3
 10438c8:	1044f980 	call	1044f98 <__subdf3>
 10438cc:	a80d883a 	mov	r6,r21
 10438d0:	a00f883a 	mov	r7,r20
 10438d4:	1009883a 	mov	r4,r2
 10438d8:	180b883a 	mov	r5,r3
 10438dc:	10448800 	call	1044880 <__muldf3>
 10438e0:	880d883a 	mov	r6,r17
 10438e4:	800f883a 	mov	r7,r16
 10438e8:	1009883a 	mov	r4,r2
 10438ec:	180b883a 	mov	r5,r3
 10438f0:	1043e700 	call	1043e70 <__adddf3>
 10438f4:	003fdd06 	br	104386c <__alt_data_end+0xfffc386c>
 10438f8:	8805883a 	mov	r2,r17
 10438fc:	8007883a 	mov	r3,r16
 1043900:	003fda06 	br	104386c <__alt_data_end+0xfffc386c>

01043904 <fabs>:
 1043904:	00e00034 	movhi	r3,32768
 1043908:	18ffffc4 	addi	r3,r3,-1
 104390c:	2005883a 	mov	r2,r4
 1043910:	28c6703a 	and	r3,r5,r3
 1043914:	f800283a 	ret

01043918 <floor>:
 1043918:	2811d53a 	srai	r8,r5,20
 104391c:	defffa04 	addi	sp,sp,-24
 1043920:	dcc00315 	stw	r19,12(sp)
 1043924:	4201ffcc 	andi	r8,r8,2047
 1043928:	dc800215 	stw	r18,8(sp)
 104392c:	dc400115 	stw	r17,4(sp)
 1043930:	dc000015 	stw	r16,0(sp)
 1043934:	dfc00515 	stw	ra,20(sp)
 1043938:	dd000415 	stw	r20,16(sp)
 104393c:	44bf0044 	addi	r18,r8,-1023
 1043940:	018004c4 	movi	r6,19
 1043944:	2821883a 	mov	r16,r5
 1043948:	2005883a 	mov	r2,r4
 104394c:	280f883a 	mov	r7,r5
 1043950:	2827883a 	mov	r19,r5
 1043954:	2023883a 	mov	r17,r4
 1043958:	34801916 	blt	r6,r18,10439c0 <floor+0xa8>
 104395c:	90003c16 	blt	r18,zero,1043a50 <floor+0x138>
 1043960:	05000434 	movhi	r20,16
 1043964:	a53fffc4 	addi	r20,r20,-1
 1043968:	a4a9d83a 	sra	r20,r20,r18
 104396c:	2d0c703a 	and	r6,r5,r20
 1043970:	310cb03a 	or	r6,r6,r4
 1043974:	30001626 	beq	r6,zero,10439d0 <floor+0xb8>
 1043978:	01a20034 	movhi	r6,34816
 104397c:	01df8e34 	movhi	r7,32312
 1043980:	319d6704 	addi	r6,r6,30108
 1043984:	39f90f04 	addi	r7,r7,-7108
 1043988:	1043e700 	call	1043e70 <__adddf3>
 104398c:	000d883a 	mov	r6,zero
 1043990:	000f883a 	mov	r7,zero
 1043994:	1009883a 	mov	r4,r2
 1043998:	180b883a 	mov	r5,r3
 104399c:	10447a40 	call	10447a4 <__gedf2>
 10439a0:	0080040e 	bge	zero,r2,10439b4 <floor+0x9c>
 10439a4:	80003c16 	blt	r16,zero,1043a98 <floor+0x180>
 10439a8:	0520303a 	nor	r16,zero,r20
 10439ac:	84e0703a 	and	r16,r16,r19
 10439b0:	0023883a 	mov	r17,zero
 10439b4:	8805883a 	mov	r2,r17
 10439b8:	8007883a 	mov	r3,r16
 10439bc:	00000506 	br	10439d4 <floor+0xbc>
 10439c0:	01800cc4 	movi	r6,51
 10439c4:	34800b0e 	bge	r6,r18,10439f4 <floor+0xdc>
 10439c8:	01810004 	movi	r6,1024
 10439cc:	91802f26 	beq	r18,r6,1043a8c <floor+0x174>
 10439d0:	3807883a 	mov	r3,r7
 10439d4:	dfc00517 	ldw	ra,20(sp)
 10439d8:	dd000417 	ldw	r20,16(sp)
 10439dc:	dcc00317 	ldw	r19,12(sp)
 10439e0:	dc800217 	ldw	r18,8(sp)
 10439e4:	dc400117 	ldw	r17,4(sp)
 10439e8:	dc000017 	ldw	r16,0(sp)
 10439ec:	dec00604 	addi	sp,sp,24
 10439f0:	f800283a 	ret
 10439f4:	423efb44 	addi	r8,r8,-1043
 10439f8:	053fffc4 	movi	r20,-1
 10439fc:	a228d83a 	srl	r20,r20,r8
 1043a00:	250c703a 	and	r6,r4,r20
 1043a04:	303ff226 	beq	r6,zero,10439d0 <__alt_data_end+0xfffc39d0>
 1043a08:	01a20034 	movhi	r6,34816
 1043a0c:	01df8e34 	movhi	r7,32312
 1043a10:	319d6704 	addi	r6,r6,30108
 1043a14:	39f90f04 	addi	r7,r7,-7108
 1043a18:	1043e700 	call	1043e70 <__adddf3>
 1043a1c:	000d883a 	mov	r6,zero
 1043a20:	000f883a 	mov	r7,zero
 1043a24:	1009883a 	mov	r4,r2
 1043a28:	180b883a 	mov	r5,r3
 1043a2c:	10447a40 	call	10447a4 <__gedf2>
 1043a30:	00bfe00e 	bge	zero,r2,10439b4 <__alt_data_end+0xfffc39b4>
 1043a34:	80001c16 	blt	r16,zero,1043aa8 <floor+0x190>
 1043a38:	0510303a 	nor	r8,zero,r20
 1043a3c:	9821883a 	mov	r16,r19
 1043a40:	8a22703a 	and	r17,r17,r8
 1043a44:	8805883a 	mov	r2,r17
 1043a48:	8007883a 	mov	r3,r16
 1043a4c:	003fe106 	br	10439d4 <__alt_data_end+0xfffc39d4>
 1043a50:	01a20034 	movhi	r6,34816
 1043a54:	01df8e34 	movhi	r7,32312
 1043a58:	319d6704 	addi	r6,r6,30108
 1043a5c:	39f90f04 	addi	r7,r7,-7108
 1043a60:	1043e700 	call	1043e70 <__adddf3>
 1043a64:	000d883a 	mov	r6,zero
 1043a68:	000f883a 	mov	r7,zero
 1043a6c:	1009883a 	mov	r4,r2
 1043a70:	180b883a 	mov	r5,r3
 1043a74:	10447a40 	call	10447a4 <__gedf2>
 1043a78:	00bfce0e 	bge	zero,r2,10439b4 <__alt_data_end+0xfffc39b4>
 1043a7c:	80001516 	blt	r16,zero,1043ad4 <floor+0x1bc>
 1043a80:	0023883a 	mov	r17,zero
 1043a84:	0021883a 	mov	r16,zero
 1043a88:	003fca06 	br	10439b4 <__alt_data_end+0xfffc39b4>
 1043a8c:	200d883a 	mov	r6,r4
 1043a90:	1043e700 	call	1043e70 <__adddf3>
 1043a94:	003fcf06 	br	10439d4 <__alt_data_end+0xfffc39d4>
 1043a98:	00800434 	movhi	r2,16
 1043a9c:	14a5d83a 	sra	r18,r2,r18
 1043aa0:	84a7883a 	add	r19,r16,r18
 1043aa4:	003fc006 	br	10439a8 <__alt_data_end+0xfffc39a8>
 1043aa8:	00800504 	movi	r2,20
 1043aac:	90801326 	beq	r18,r2,1043afc <floor+0x1e4>
 1043ab0:	00800d04 	movi	r2,52
 1043ab4:	14a5c83a 	sub	r18,r2,r18
 1043ab8:	00800044 	movi	r2,1
 1043abc:	1484983a 	sll	r2,r2,r18
 1043ac0:	1445883a 	add	r2,r2,r17
 1043ac4:	14400b2e 	bgeu	r2,r17,1043af4 <floor+0x1dc>
 1043ac8:	84c00044 	addi	r19,r16,1
 1043acc:	1023883a 	mov	r17,r2
 1043ad0:	003fd906 	br	1043a38 <__alt_data_end+0xfffc3a38>
 1043ad4:	00a00034 	movhi	r2,32768
 1043ad8:	10bfffc4 	addi	r2,r2,-1
 1043adc:	8084703a 	and	r2,r16,r2
 1043ae0:	1462b03a 	or	r17,r2,r17
 1043ae4:	883fb326 	beq	r17,zero,10439b4 <__alt_data_end+0xfffc39b4>
 1043ae8:	0023883a 	mov	r17,zero
 1043aec:	042ffc34 	movhi	r16,49136
 1043af0:	003fb006 	br	10439b4 <__alt_data_end+0xfffc39b4>
 1043af4:	1023883a 	mov	r17,r2
 1043af8:	003fcf06 	br	1043a38 <__alt_data_end+0xfffc3a38>
 1043afc:	84c00044 	addi	r19,r16,1
 1043b00:	003fcd06 	br	1043a38 <__alt_data_end+0xfffc3a38>

01043b04 <scalbn>:
 1043b04:	2a1ffc2c 	andhi	r8,r5,32752
 1043b08:	4011d53a 	srai	r8,r8,20
 1043b0c:	defffe04 	addi	sp,sp,-8
 1043b10:	dc000015 	stw	r16,0(sp)
 1043b14:	dfc00115 	stw	ra,4(sp)
 1043b18:	280f883a 	mov	r7,r5
 1043b1c:	2015883a 	mov	r10,r4
 1043b20:	3021883a 	mov	r16,r6
 1043b24:	40001e1e 	bne	r8,zero,1043ba0 <scalbn+0x9c>
 1043b28:	00a00034 	movhi	r2,32768
 1043b2c:	10bfffc4 	addi	r2,r2,-1
 1043b30:	2884703a 	and	r2,r5,r2
 1043b34:	1104b03a 	or	r2,r2,r4
 1043b38:	10002226 	beq	r2,zero,1043bc4 <scalbn+0xc0>
 1043b3c:	01d0d434 	movhi	r7,17232
 1043b40:	000d883a 	mov	r6,zero
 1043b44:	10448800 	call	1044880 <__muldf3>
 1043b48:	013ffff4 	movhi	r4,65535
 1043b4c:	210f2c04 	addi	r4,r4,15536
 1043b50:	1015883a 	mov	r10,r2
 1043b54:	180f883a 	mov	r7,r3
 1043b58:	81002a16 	blt	r16,r4,1043c04 <scalbn+0x100>
 1043b5c:	191ffc2c 	andhi	r4,r3,32752
 1043b60:	2009d53a 	srai	r4,r4,20
 1043b64:	223ff284 	addi	r8,r4,-54
 1043b68:	8211883a 	add	r8,r16,r8
 1043b6c:	0081ff84 	movi	r2,2046
 1043b70:	12002f16 	blt	r2,r8,1043c30 <scalbn+0x12c>
 1043b74:	0200190e 	bge	zero,r8,1043bdc <scalbn+0xd8>
 1043b78:	4010953a 	slli	r8,r8,20
 1043b7c:	01600434 	movhi	r5,32784
 1043b80:	297fffc4 	addi	r5,r5,-1
 1043b84:	194e703a 	and	r7,r3,r5
 1043b88:	5005883a 	mov	r2,r10
 1043b8c:	3a06b03a 	or	r3,r7,r8
 1043b90:	dfc00117 	ldw	ra,4(sp)
 1043b94:	dc000017 	ldw	r16,0(sp)
 1043b98:	dec00204 	addi	sp,sp,8
 1043b9c:	f800283a 	ret
 1043ba0:	0081ffc4 	movi	r2,2047
 1043ba4:	2807883a 	mov	r3,r5
 1043ba8:	40bfef1e 	bne	r8,r2,1043b68 <__alt_data_end+0xfffc3b68>
 1043bac:	200d883a 	mov	r6,r4
 1043bb0:	1043e700 	call	1043e70 <__adddf3>
 1043bb4:	dfc00117 	ldw	ra,4(sp)
 1043bb8:	dc000017 	ldw	r16,0(sp)
 1043bbc:	dec00204 	addi	sp,sp,8
 1043bc0:	f800283a 	ret
 1043bc4:	2005883a 	mov	r2,r4
 1043bc8:	2807883a 	mov	r3,r5
 1043bcc:	dfc00117 	ldw	ra,4(sp)
 1043bd0:	dc000017 	ldw	r16,0(sp)
 1043bd4:	dec00204 	addi	sp,sp,8
 1043bd8:	f800283a 	ret
 1043bdc:	00bff2c4 	movi	r2,-53
 1043be0:	4080240e 	bge	r8,r2,1043c74 <scalbn+0x170>
 1043be4:	00b0d414 	movui	r2,50000
 1043be8:	14001116 	blt	r2,r16,1043c30 <scalbn+0x12c>
 1043bec:	0130be74 	movhi	r4,49913
 1043bf0:	01406974 	movhi	r5,421
 1043bf4:	213cd644 	addi	r4,r4,-3239
 1043bf8:	295b87c4 	addi	r5,r5,28191
 1043bfc:	500d883a 	mov	r6,r10
 1043c00:	1043ca00 	call	1043ca0 <copysign>
 1043c04:	01b0be74 	movhi	r6,49913
 1043c08:	01c06974 	movhi	r7,421
 1043c0c:	31bcd644 	addi	r6,r6,-3239
 1043c10:	39db87c4 	addi	r7,r7,28191
 1043c14:	1009883a 	mov	r4,r2
 1043c18:	180b883a 	mov	r5,r3
 1043c1c:	10448800 	call	1044880 <__muldf3>
 1043c20:	dfc00117 	ldw	ra,4(sp)
 1043c24:	dc000017 	ldw	r16,0(sp)
 1043c28:	dec00204 	addi	sp,sp,8
 1043c2c:	f800283a 	ret
 1043c30:	01220034 	movhi	r4,34816
 1043c34:	015f8e34 	movhi	r5,32312
 1043c38:	500d883a 	mov	r6,r10
 1043c3c:	211d6704 	addi	r4,r4,30108
 1043c40:	29790f04 	addi	r5,r5,-7108
 1043c44:	1043ca00 	call	1043ca0 <copysign>
 1043c48:	01a20034 	movhi	r6,34816
 1043c4c:	01df8e34 	movhi	r7,32312
 1043c50:	319d6704 	addi	r6,r6,30108
 1043c54:	39f90f04 	addi	r7,r7,-7108
 1043c58:	1009883a 	mov	r4,r2
 1043c5c:	180b883a 	mov	r5,r3
 1043c60:	10448800 	call	1044880 <__muldf3>
 1043c64:	dfc00117 	ldw	ra,4(sp)
 1043c68:	dc000017 	ldw	r16,0(sp)
 1043c6c:	dec00204 	addi	sp,sp,8
 1043c70:	f800283a 	ret
 1043c74:	42000d84 	addi	r8,r8,54
 1043c78:	4012953a 	slli	r9,r8,20
 1043c7c:	01e00434 	movhi	r7,32784
 1043c80:	39ffffc4 	addi	r7,r7,-1
 1043c84:	19ca703a 	and	r5,r3,r7
 1043c88:	000d883a 	mov	r6,zero
 1043c8c:	01cf2434 	movhi	r7,15504
 1043c90:	5009883a 	mov	r4,r10
 1043c94:	494ab03a 	or	r5,r9,r5
 1043c98:	10448800 	call	1044880 <__muldf3>
 1043c9c:	003fbc06 	br	1043b90 <__alt_data_end+0xfffc3b90>

01043ca0 <copysign>:
 1043ca0:	2005883a 	mov	r2,r4
 1043ca4:	01200034 	movhi	r4,32768
 1043ca8:	213fffc4 	addi	r4,r4,-1
 1043cac:	38e0002c 	andhi	r3,r7,32768
 1043cb0:	290a703a 	and	r5,r5,r4
 1043cb4:	28c6b03a 	or	r3,r5,r3
 1043cb8:	f800283a 	ret

01043cbc <__divsi3>:
 1043cbc:	20001b16 	blt	r4,zero,1043d2c <__divsi3+0x70>
 1043cc0:	000f883a 	mov	r7,zero
 1043cc4:	28001616 	blt	r5,zero,1043d20 <__divsi3+0x64>
 1043cc8:	200d883a 	mov	r6,r4
 1043ccc:	29001a2e 	bgeu	r5,r4,1043d38 <__divsi3+0x7c>
 1043cd0:	00800804 	movi	r2,32
 1043cd4:	00c00044 	movi	r3,1
 1043cd8:	00000106 	br	1043ce0 <__divsi3+0x24>
 1043cdc:	10000d26 	beq	r2,zero,1043d14 <__divsi3+0x58>
 1043ce0:	294b883a 	add	r5,r5,r5
 1043ce4:	10bfffc4 	addi	r2,r2,-1
 1043ce8:	18c7883a 	add	r3,r3,r3
 1043cec:	293ffb36 	bltu	r5,r4,1043cdc <__alt_data_end+0xfffc3cdc>
 1043cf0:	0005883a 	mov	r2,zero
 1043cf4:	18000726 	beq	r3,zero,1043d14 <__divsi3+0x58>
 1043cf8:	0005883a 	mov	r2,zero
 1043cfc:	31400236 	bltu	r6,r5,1043d08 <__divsi3+0x4c>
 1043d00:	314dc83a 	sub	r6,r6,r5
 1043d04:	10c4b03a 	or	r2,r2,r3
 1043d08:	1806d07a 	srli	r3,r3,1
 1043d0c:	280ad07a 	srli	r5,r5,1
 1043d10:	183ffa1e 	bne	r3,zero,1043cfc <__alt_data_end+0xfffc3cfc>
 1043d14:	38000126 	beq	r7,zero,1043d1c <__divsi3+0x60>
 1043d18:	0085c83a 	sub	r2,zero,r2
 1043d1c:	f800283a 	ret
 1043d20:	014bc83a 	sub	r5,zero,r5
 1043d24:	39c0005c 	xori	r7,r7,1
 1043d28:	003fe706 	br	1043cc8 <__alt_data_end+0xfffc3cc8>
 1043d2c:	0109c83a 	sub	r4,zero,r4
 1043d30:	01c00044 	movi	r7,1
 1043d34:	003fe306 	br	1043cc4 <__alt_data_end+0xfffc3cc4>
 1043d38:	00c00044 	movi	r3,1
 1043d3c:	003fee06 	br	1043cf8 <__alt_data_end+0xfffc3cf8>

01043d40 <__modsi3>:
 1043d40:	20001716 	blt	r4,zero,1043da0 <__modsi3+0x60>
 1043d44:	000f883a 	mov	r7,zero
 1043d48:	2005883a 	mov	r2,r4
 1043d4c:	28001216 	blt	r5,zero,1043d98 <__modsi3+0x58>
 1043d50:	2900162e 	bgeu	r5,r4,1043dac <__modsi3+0x6c>
 1043d54:	01800804 	movi	r6,32
 1043d58:	00c00044 	movi	r3,1
 1043d5c:	00000106 	br	1043d64 <__modsi3+0x24>
 1043d60:	30000a26 	beq	r6,zero,1043d8c <__modsi3+0x4c>
 1043d64:	294b883a 	add	r5,r5,r5
 1043d68:	31bfffc4 	addi	r6,r6,-1
 1043d6c:	18c7883a 	add	r3,r3,r3
 1043d70:	293ffb36 	bltu	r5,r4,1043d60 <__alt_data_end+0xfffc3d60>
 1043d74:	18000526 	beq	r3,zero,1043d8c <__modsi3+0x4c>
 1043d78:	1806d07a 	srli	r3,r3,1
 1043d7c:	11400136 	bltu	r2,r5,1043d84 <__modsi3+0x44>
 1043d80:	1145c83a 	sub	r2,r2,r5
 1043d84:	280ad07a 	srli	r5,r5,1
 1043d88:	183ffb1e 	bne	r3,zero,1043d78 <__alt_data_end+0xfffc3d78>
 1043d8c:	38000126 	beq	r7,zero,1043d94 <__modsi3+0x54>
 1043d90:	0085c83a 	sub	r2,zero,r2
 1043d94:	f800283a 	ret
 1043d98:	014bc83a 	sub	r5,zero,r5
 1043d9c:	003fec06 	br	1043d50 <__alt_data_end+0xfffc3d50>
 1043da0:	0109c83a 	sub	r4,zero,r4
 1043da4:	01c00044 	movi	r7,1
 1043da8:	003fe706 	br	1043d48 <__alt_data_end+0xfffc3d48>
 1043dac:	00c00044 	movi	r3,1
 1043db0:	003ff106 	br	1043d78 <__alt_data_end+0xfffc3d78>

01043db4 <__udivsi3>:
 1043db4:	200d883a 	mov	r6,r4
 1043db8:	2900152e 	bgeu	r5,r4,1043e10 <__udivsi3+0x5c>
 1043dbc:	28001416 	blt	r5,zero,1043e10 <__udivsi3+0x5c>
 1043dc0:	00800804 	movi	r2,32
 1043dc4:	00c00044 	movi	r3,1
 1043dc8:	00000206 	br	1043dd4 <__udivsi3+0x20>
 1043dcc:	10000e26 	beq	r2,zero,1043e08 <__udivsi3+0x54>
 1043dd0:	28000516 	blt	r5,zero,1043de8 <__udivsi3+0x34>
 1043dd4:	294b883a 	add	r5,r5,r5
 1043dd8:	10bfffc4 	addi	r2,r2,-1
 1043ddc:	18c7883a 	add	r3,r3,r3
 1043de0:	293ffa36 	bltu	r5,r4,1043dcc <__alt_data_end+0xfffc3dcc>
 1043de4:	18000826 	beq	r3,zero,1043e08 <__udivsi3+0x54>
 1043de8:	0005883a 	mov	r2,zero
 1043dec:	31400236 	bltu	r6,r5,1043df8 <__udivsi3+0x44>
 1043df0:	314dc83a 	sub	r6,r6,r5
 1043df4:	10c4b03a 	or	r2,r2,r3
 1043df8:	1806d07a 	srli	r3,r3,1
 1043dfc:	280ad07a 	srli	r5,r5,1
 1043e00:	183ffa1e 	bne	r3,zero,1043dec <__alt_data_end+0xfffc3dec>
 1043e04:	f800283a 	ret
 1043e08:	0005883a 	mov	r2,zero
 1043e0c:	f800283a 	ret
 1043e10:	00c00044 	movi	r3,1
 1043e14:	003ff406 	br	1043de8 <__alt_data_end+0xfffc3de8>

01043e18 <__umodsi3>:
 1043e18:	2005883a 	mov	r2,r4
 1043e1c:	2900122e 	bgeu	r5,r4,1043e68 <__umodsi3+0x50>
 1043e20:	28001116 	blt	r5,zero,1043e68 <__umodsi3+0x50>
 1043e24:	01800804 	movi	r6,32
 1043e28:	00c00044 	movi	r3,1
 1043e2c:	00000206 	br	1043e38 <__umodsi3+0x20>
 1043e30:	30000c26 	beq	r6,zero,1043e64 <__umodsi3+0x4c>
 1043e34:	28000516 	blt	r5,zero,1043e4c <__umodsi3+0x34>
 1043e38:	294b883a 	add	r5,r5,r5
 1043e3c:	31bfffc4 	addi	r6,r6,-1
 1043e40:	18c7883a 	add	r3,r3,r3
 1043e44:	293ffa36 	bltu	r5,r4,1043e30 <__alt_data_end+0xfffc3e30>
 1043e48:	18000626 	beq	r3,zero,1043e64 <__umodsi3+0x4c>
 1043e4c:	1806d07a 	srli	r3,r3,1
 1043e50:	11400136 	bltu	r2,r5,1043e58 <__umodsi3+0x40>
 1043e54:	1145c83a 	sub	r2,r2,r5
 1043e58:	280ad07a 	srli	r5,r5,1
 1043e5c:	183ffb1e 	bne	r3,zero,1043e4c <__alt_data_end+0xfffc3e4c>
 1043e60:	f800283a 	ret
 1043e64:	f800283a 	ret
 1043e68:	00c00044 	movi	r3,1
 1043e6c:	003ff706 	br	1043e4c <__alt_data_end+0xfffc3e4c>

01043e70 <__adddf3>:
 1043e70:	02c00434 	movhi	r11,16
 1043e74:	5affffc4 	addi	r11,r11,-1
 1043e78:	2806d7fa 	srli	r3,r5,31
 1043e7c:	2ad4703a 	and	r10,r5,r11
 1043e80:	3ad2703a 	and	r9,r7,r11
 1043e84:	3804d53a 	srli	r2,r7,20
 1043e88:	3018d77a 	srli	r12,r6,29
 1043e8c:	280ad53a 	srli	r5,r5,20
 1043e90:	501490fa 	slli	r10,r10,3
 1043e94:	2010d77a 	srli	r8,r4,29
 1043e98:	481290fa 	slli	r9,r9,3
 1043e9c:	380ed7fa 	srli	r7,r7,31
 1043ea0:	defffb04 	addi	sp,sp,-20
 1043ea4:	dc800215 	stw	r18,8(sp)
 1043ea8:	dc400115 	stw	r17,4(sp)
 1043eac:	dc000015 	stw	r16,0(sp)
 1043eb0:	dfc00415 	stw	ra,16(sp)
 1043eb4:	dcc00315 	stw	r19,12(sp)
 1043eb8:	1c803fcc 	andi	r18,r3,255
 1043ebc:	2c01ffcc 	andi	r16,r5,2047
 1043ec0:	5210b03a 	or	r8,r10,r8
 1043ec4:	202290fa 	slli	r17,r4,3
 1043ec8:	1081ffcc 	andi	r2,r2,2047
 1043ecc:	4b12b03a 	or	r9,r9,r12
 1043ed0:	300c90fa 	slli	r6,r6,3
 1043ed4:	91c07526 	beq	r18,r7,10440ac <__adddf3+0x23c>
 1043ed8:	8087c83a 	sub	r3,r16,r2
 1043edc:	00c0ab0e 	bge	zero,r3,104418c <__adddf3+0x31c>
 1043ee0:	10002a1e 	bne	r2,zero,1043f8c <__adddf3+0x11c>
 1043ee4:	4984b03a 	or	r2,r9,r6
 1043ee8:	1000961e 	bne	r2,zero,1044144 <__adddf3+0x2d4>
 1043eec:	888001cc 	andi	r2,r17,7
 1043ef0:	10000726 	beq	r2,zero,1043f10 <__adddf3+0xa0>
 1043ef4:	888003cc 	andi	r2,r17,15
 1043ef8:	00c00104 	movi	r3,4
 1043efc:	10c00426 	beq	r2,r3,1043f10 <__adddf3+0xa0>
 1043f00:	88c7883a 	add	r3,r17,r3
 1043f04:	1c63803a 	cmpltu	r17,r3,r17
 1043f08:	4451883a 	add	r8,r8,r17
 1043f0c:	1823883a 	mov	r17,r3
 1043f10:	4080202c 	andhi	r2,r8,128
 1043f14:	10005926 	beq	r2,zero,104407c <__adddf3+0x20c>
 1043f18:	84000044 	addi	r16,r16,1
 1043f1c:	0081ffc4 	movi	r2,2047
 1043f20:	8080ba26 	beq	r16,r2,104420c <__adddf3+0x39c>
 1043f24:	00bfe034 	movhi	r2,65408
 1043f28:	10bfffc4 	addi	r2,r2,-1
 1043f2c:	4090703a 	and	r8,r8,r2
 1043f30:	4004977a 	slli	r2,r8,29
 1043f34:	4010927a 	slli	r8,r8,9
 1043f38:	8822d0fa 	srli	r17,r17,3
 1043f3c:	8401ffcc 	andi	r16,r16,2047
 1043f40:	4010d33a 	srli	r8,r8,12
 1043f44:	9007883a 	mov	r3,r18
 1043f48:	1444b03a 	or	r2,r2,r17
 1043f4c:	8401ffcc 	andi	r16,r16,2047
 1043f50:	8020953a 	slli	r16,r16,20
 1043f54:	18c03fcc 	andi	r3,r3,255
 1043f58:	01000434 	movhi	r4,16
 1043f5c:	213fffc4 	addi	r4,r4,-1
 1043f60:	180697fa 	slli	r3,r3,31
 1043f64:	4110703a 	and	r8,r8,r4
 1043f68:	4410b03a 	or	r8,r8,r16
 1043f6c:	40c6b03a 	or	r3,r8,r3
 1043f70:	dfc00417 	ldw	ra,16(sp)
 1043f74:	dcc00317 	ldw	r19,12(sp)
 1043f78:	dc800217 	ldw	r18,8(sp)
 1043f7c:	dc400117 	ldw	r17,4(sp)
 1043f80:	dc000017 	ldw	r16,0(sp)
 1043f84:	dec00504 	addi	sp,sp,20
 1043f88:	f800283a 	ret
 1043f8c:	0081ffc4 	movi	r2,2047
 1043f90:	80bfd626 	beq	r16,r2,1043eec <__alt_data_end+0xfffc3eec>
 1043f94:	4a402034 	orhi	r9,r9,128
 1043f98:	00800e04 	movi	r2,56
 1043f9c:	10c09f16 	blt	r2,r3,104421c <__adddf3+0x3ac>
 1043fa0:	008007c4 	movi	r2,31
 1043fa4:	10c0c216 	blt	r2,r3,10442b0 <__adddf3+0x440>
 1043fa8:	00800804 	movi	r2,32
 1043fac:	10c5c83a 	sub	r2,r2,r3
 1043fb0:	488a983a 	sll	r5,r9,r2
 1043fb4:	30c8d83a 	srl	r4,r6,r3
 1043fb8:	3084983a 	sll	r2,r6,r2
 1043fbc:	48c6d83a 	srl	r3,r9,r3
 1043fc0:	290cb03a 	or	r6,r5,r4
 1043fc4:	1004c03a 	cmpne	r2,r2,zero
 1043fc8:	308cb03a 	or	r6,r6,r2
 1043fcc:	898dc83a 	sub	r6,r17,r6
 1043fd0:	89a3803a 	cmpltu	r17,r17,r6
 1043fd4:	40d1c83a 	sub	r8,r8,r3
 1043fd8:	4451c83a 	sub	r8,r8,r17
 1043fdc:	3023883a 	mov	r17,r6
 1043fe0:	4080202c 	andhi	r2,r8,128
 1043fe4:	10002326 	beq	r2,zero,1044074 <__adddf3+0x204>
 1043fe8:	04c02034 	movhi	r19,128
 1043fec:	9cffffc4 	addi	r19,r19,-1
 1043ff0:	44e6703a 	and	r19,r8,r19
 1043ff4:	98007626 	beq	r19,zero,10441d0 <__adddf3+0x360>
 1043ff8:	9809883a 	mov	r4,r19
 1043ffc:	10459f00 	call	10459f0 <__clzsi2>
 1044000:	10fffe04 	addi	r3,r2,-8
 1044004:	010007c4 	movi	r4,31
 1044008:	20c07716 	blt	r4,r3,10441e8 <__adddf3+0x378>
 104400c:	00800804 	movi	r2,32
 1044010:	10c5c83a 	sub	r2,r2,r3
 1044014:	8884d83a 	srl	r2,r17,r2
 1044018:	98d0983a 	sll	r8,r19,r3
 104401c:	88e2983a 	sll	r17,r17,r3
 1044020:	1204b03a 	or	r2,r2,r8
 1044024:	1c007416 	blt	r3,r16,10441f8 <__adddf3+0x388>
 1044028:	1c21c83a 	sub	r16,r3,r16
 104402c:	82000044 	addi	r8,r16,1
 1044030:	00c007c4 	movi	r3,31
 1044034:	1a009116 	blt	r3,r8,104427c <__adddf3+0x40c>
 1044038:	00c00804 	movi	r3,32
 104403c:	1a07c83a 	sub	r3,r3,r8
 1044040:	8a08d83a 	srl	r4,r17,r8
 1044044:	88e2983a 	sll	r17,r17,r3
 1044048:	10c6983a 	sll	r3,r2,r3
 104404c:	1210d83a 	srl	r8,r2,r8
 1044050:	8804c03a 	cmpne	r2,r17,zero
 1044054:	1906b03a 	or	r3,r3,r4
 1044058:	18a2b03a 	or	r17,r3,r2
 104405c:	0021883a 	mov	r16,zero
 1044060:	003fa206 	br	1043eec <__alt_data_end+0xfffc3eec>
 1044064:	1890b03a 	or	r8,r3,r2
 1044068:	40017d26 	beq	r8,zero,1044660 <__adddf3+0x7f0>
 104406c:	1011883a 	mov	r8,r2
 1044070:	1823883a 	mov	r17,r3
 1044074:	888001cc 	andi	r2,r17,7
 1044078:	103f9e1e 	bne	r2,zero,1043ef4 <__alt_data_end+0xfffc3ef4>
 104407c:	4004977a 	slli	r2,r8,29
 1044080:	8822d0fa 	srli	r17,r17,3
 1044084:	4010d0fa 	srli	r8,r8,3
 1044088:	9007883a 	mov	r3,r18
 104408c:	1444b03a 	or	r2,r2,r17
 1044090:	0101ffc4 	movi	r4,2047
 1044094:	81002426 	beq	r16,r4,1044128 <__adddf3+0x2b8>
 1044098:	8120703a 	and	r16,r16,r4
 104409c:	01000434 	movhi	r4,16
 10440a0:	213fffc4 	addi	r4,r4,-1
 10440a4:	4110703a 	and	r8,r8,r4
 10440a8:	003fa806 	br	1043f4c <__alt_data_end+0xfffc3f4c>
 10440ac:	8089c83a 	sub	r4,r16,r2
 10440b0:	01005e0e 	bge	zero,r4,104422c <__adddf3+0x3bc>
 10440b4:	10002b26 	beq	r2,zero,1044164 <__adddf3+0x2f4>
 10440b8:	0081ffc4 	movi	r2,2047
 10440bc:	80bf8b26 	beq	r16,r2,1043eec <__alt_data_end+0xfffc3eec>
 10440c0:	4a402034 	orhi	r9,r9,128
 10440c4:	00800e04 	movi	r2,56
 10440c8:	1100a40e 	bge	r2,r4,104435c <__adddf3+0x4ec>
 10440cc:	498cb03a 	or	r6,r9,r6
 10440d0:	300ac03a 	cmpne	r5,r6,zero
 10440d4:	0013883a 	mov	r9,zero
 10440d8:	2c4b883a 	add	r5,r5,r17
 10440dc:	2c63803a 	cmpltu	r17,r5,r17
 10440e0:	4a11883a 	add	r8,r9,r8
 10440e4:	8a11883a 	add	r8,r17,r8
 10440e8:	2823883a 	mov	r17,r5
 10440ec:	4080202c 	andhi	r2,r8,128
 10440f0:	103fe026 	beq	r2,zero,1044074 <__alt_data_end+0xfffc4074>
 10440f4:	84000044 	addi	r16,r16,1
 10440f8:	0081ffc4 	movi	r2,2047
 10440fc:	8080d226 	beq	r16,r2,1044448 <__adddf3+0x5d8>
 1044100:	00bfe034 	movhi	r2,65408
 1044104:	10bfffc4 	addi	r2,r2,-1
 1044108:	4090703a 	and	r8,r8,r2
 104410c:	880ad07a 	srli	r5,r17,1
 1044110:	400897fa 	slli	r4,r8,31
 1044114:	88c0004c 	andi	r3,r17,1
 1044118:	28e2b03a 	or	r17,r5,r3
 104411c:	4010d07a 	srli	r8,r8,1
 1044120:	2462b03a 	or	r17,r4,r17
 1044124:	003f7106 	br	1043eec <__alt_data_end+0xfffc3eec>
 1044128:	4088b03a 	or	r4,r8,r2
 104412c:	20014526 	beq	r4,zero,1044644 <__adddf3+0x7d4>
 1044130:	01000434 	movhi	r4,16
 1044134:	42000234 	orhi	r8,r8,8
 1044138:	213fffc4 	addi	r4,r4,-1
 104413c:	4110703a 	and	r8,r8,r4
 1044140:	003f8206 	br	1043f4c <__alt_data_end+0xfffc3f4c>
 1044144:	18ffffc4 	addi	r3,r3,-1
 1044148:	1800491e 	bne	r3,zero,1044270 <__adddf3+0x400>
 104414c:	898bc83a 	sub	r5,r17,r6
 1044150:	8963803a 	cmpltu	r17,r17,r5
 1044154:	4251c83a 	sub	r8,r8,r9
 1044158:	4451c83a 	sub	r8,r8,r17
 104415c:	2823883a 	mov	r17,r5
 1044160:	003f9f06 	br	1043fe0 <__alt_data_end+0xfffc3fe0>
 1044164:	4984b03a 	or	r2,r9,r6
 1044168:	103f6026 	beq	r2,zero,1043eec <__alt_data_end+0xfffc3eec>
 104416c:	213fffc4 	addi	r4,r4,-1
 1044170:	2000931e 	bne	r4,zero,10443c0 <__adddf3+0x550>
 1044174:	898d883a 	add	r6,r17,r6
 1044178:	3463803a 	cmpltu	r17,r6,r17
 104417c:	4251883a 	add	r8,r8,r9
 1044180:	8a11883a 	add	r8,r17,r8
 1044184:	3023883a 	mov	r17,r6
 1044188:	003fd806 	br	10440ec <__alt_data_end+0xfffc40ec>
 104418c:	1800541e 	bne	r3,zero,10442e0 <__adddf3+0x470>
 1044190:	80800044 	addi	r2,r16,1
 1044194:	1081ffcc 	andi	r2,r2,2047
 1044198:	00c00044 	movi	r3,1
 104419c:	1880a00e 	bge	r3,r2,1044420 <__adddf3+0x5b0>
 10441a0:	8989c83a 	sub	r4,r17,r6
 10441a4:	8905803a 	cmpltu	r2,r17,r4
 10441a8:	4267c83a 	sub	r19,r8,r9
 10441ac:	98a7c83a 	sub	r19,r19,r2
 10441b0:	9880202c 	andhi	r2,r19,128
 10441b4:	10006326 	beq	r2,zero,1044344 <__adddf3+0x4d4>
 10441b8:	3463c83a 	sub	r17,r6,r17
 10441bc:	4a07c83a 	sub	r3,r9,r8
 10441c0:	344d803a 	cmpltu	r6,r6,r17
 10441c4:	19a7c83a 	sub	r19,r3,r6
 10441c8:	3825883a 	mov	r18,r7
 10441cc:	983f8a1e 	bne	r19,zero,1043ff8 <__alt_data_end+0xfffc3ff8>
 10441d0:	8809883a 	mov	r4,r17
 10441d4:	10459f00 	call	10459f0 <__clzsi2>
 10441d8:	10800804 	addi	r2,r2,32
 10441dc:	10fffe04 	addi	r3,r2,-8
 10441e0:	010007c4 	movi	r4,31
 10441e4:	20ff890e 	bge	r4,r3,104400c <__alt_data_end+0xfffc400c>
 10441e8:	10bff604 	addi	r2,r2,-40
 10441ec:	8884983a 	sll	r2,r17,r2
 10441f0:	0023883a 	mov	r17,zero
 10441f4:	1c3f8c0e 	bge	r3,r16,1044028 <__alt_data_end+0xfffc4028>
 10441f8:	023fe034 	movhi	r8,65408
 10441fc:	423fffc4 	addi	r8,r8,-1
 1044200:	80e1c83a 	sub	r16,r16,r3
 1044204:	1210703a 	and	r8,r2,r8
 1044208:	003f3806 	br	1043eec <__alt_data_end+0xfffc3eec>
 104420c:	9007883a 	mov	r3,r18
 1044210:	0011883a 	mov	r8,zero
 1044214:	0005883a 	mov	r2,zero
 1044218:	003f4c06 	br	1043f4c <__alt_data_end+0xfffc3f4c>
 104421c:	498cb03a 	or	r6,r9,r6
 1044220:	300cc03a 	cmpne	r6,r6,zero
 1044224:	0007883a 	mov	r3,zero
 1044228:	003f6806 	br	1043fcc <__alt_data_end+0xfffc3fcc>
 104422c:	20009c1e 	bne	r4,zero,10444a0 <__adddf3+0x630>
 1044230:	80800044 	addi	r2,r16,1
 1044234:	1141ffcc 	andi	r5,r2,2047
 1044238:	01000044 	movi	r4,1
 104423c:	2140670e 	bge	r4,r5,10443dc <__adddf3+0x56c>
 1044240:	0101ffc4 	movi	r4,2047
 1044244:	11007f26 	beq	r2,r4,1044444 <__adddf3+0x5d4>
 1044248:	898d883a 	add	r6,r17,r6
 104424c:	4247883a 	add	r3,r8,r9
 1044250:	3451803a 	cmpltu	r8,r6,r17
 1044254:	40d1883a 	add	r8,r8,r3
 1044258:	402297fa 	slli	r17,r8,31
 104425c:	300cd07a 	srli	r6,r6,1
 1044260:	4010d07a 	srli	r8,r8,1
 1044264:	1021883a 	mov	r16,r2
 1044268:	89a2b03a 	or	r17,r17,r6
 104426c:	003f1f06 	br	1043eec <__alt_data_end+0xfffc3eec>
 1044270:	0081ffc4 	movi	r2,2047
 1044274:	80bf481e 	bne	r16,r2,1043f98 <__alt_data_end+0xfffc3f98>
 1044278:	003f1c06 	br	1043eec <__alt_data_end+0xfffc3eec>
 104427c:	843ff844 	addi	r16,r16,-31
 1044280:	01000804 	movi	r4,32
 1044284:	1406d83a 	srl	r3,r2,r16
 1044288:	41005026 	beq	r8,r4,10443cc <__adddf3+0x55c>
 104428c:	01001004 	movi	r4,64
 1044290:	2211c83a 	sub	r8,r4,r8
 1044294:	1204983a 	sll	r2,r2,r8
 1044298:	88a2b03a 	or	r17,r17,r2
 104429c:	8822c03a 	cmpne	r17,r17,zero
 10442a0:	1c62b03a 	or	r17,r3,r17
 10442a4:	0011883a 	mov	r8,zero
 10442a8:	0021883a 	mov	r16,zero
 10442ac:	003f7106 	br	1044074 <__alt_data_end+0xfffc4074>
 10442b0:	193ff804 	addi	r4,r3,-32
 10442b4:	00800804 	movi	r2,32
 10442b8:	4908d83a 	srl	r4,r9,r4
 10442bc:	18804526 	beq	r3,r2,10443d4 <__adddf3+0x564>
 10442c0:	00801004 	movi	r2,64
 10442c4:	10c5c83a 	sub	r2,r2,r3
 10442c8:	4886983a 	sll	r3,r9,r2
 10442cc:	198cb03a 	or	r6,r3,r6
 10442d0:	300cc03a 	cmpne	r6,r6,zero
 10442d4:	218cb03a 	or	r6,r4,r6
 10442d8:	0007883a 	mov	r3,zero
 10442dc:	003f3b06 	br	1043fcc <__alt_data_end+0xfffc3fcc>
 10442e0:	80002a26 	beq	r16,zero,104438c <__adddf3+0x51c>
 10442e4:	0101ffc4 	movi	r4,2047
 10442e8:	11006826 	beq	r2,r4,104448c <__adddf3+0x61c>
 10442ec:	00c7c83a 	sub	r3,zero,r3
 10442f0:	42002034 	orhi	r8,r8,128
 10442f4:	01000e04 	movi	r4,56
 10442f8:	20c07c16 	blt	r4,r3,10444ec <__adddf3+0x67c>
 10442fc:	010007c4 	movi	r4,31
 1044300:	20c0da16 	blt	r4,r3,104466c <__adddf3+0x7fc>
 1044304:	01000804 	movi	r4,32
 1044308:	20c9c83a 	sub	r4,r4,r3
 104430c:	4114983a 	sll	r10,r8,r4
 1044310:	88cad83a 	srl	r5,r17,r3
 1044314:	8908983a 	sll	r4,r17,r4
 1044318:	40c6d83a 	srl	r3,r8,r3
 104431c:	5162b03a 	or	r17,r10,r5
 1044320:	2008c03a 	cmpne	r4,r4,zero
 1044324:	8922b03a 	or	r17,r17,r4
 1044328:	3463c83a 	sub	r17,r6,r17
 104432c:	48c7c83a 	sub	r3,r9,r3
 1044330:	344d803a 	cmpltu	r6,r6,r17
 1044334:	1991c83a 	sub	r8,r3,r6
 1044338:	1021883a 	mov	r16,r2
 104433c:	3825883a 	mov	r18,r7
 1044340:	003f2706 	br	1043fe0 <__alt_data_end+0xfffc3fe0>
 1044344:	24d0b03a 	or	r8,r4,r19
 1044348:	40001b1e 	bne	r8,zero,10443b8 <__adddf3+0x548>
 104434c:	0005883a 	mov	r2,zero
 1044350:	0007883a 	mov	r3,zero
 1044354:	0021883a 	mov	r16,zero
 1044358:	003f4d06 	br	1044090 <__alt_data_end+0xfffc4090>
 104435c:	008007c4 	movi	r2,31
 1044360:	11003c16 	blt	r2,r4,1044454 <__adddf3+0x5e4>
 1044364:	00800804 	movi	r2,32
 1044368:	1105c83a 	sub	r2,r2,r4
 104436c:	488e983a 	sll	r7,r9,r2
 1044370:	310ad83a 	srl	r5,r6,r4
 1044374:	3084983a 	sll	r2,r6,r2
 1044378:	4912d83a 	srl	r9,r9,r4
 104437c:	394ab03a 	or	r5,r7,r5
 1044380:	1004c03a 	cmpne	r2,r2,zero
 1044384:	288ab03a 	or	r5,r5,r2
 1044388:	003f5306 	br	10440d8 <__alt_data_end+0xfffc40d8>
 104438c:	4448b03a 	or	r4,r8,r17
 1044390:	20003e26 	beq	r4,zero,104448c <__adddf3+0x61c>
 1044394:	00c6303a 	nor	r3,zero,r3
 1044398:	18003a1e 	bne	r3,zero,1044484 <__adddf3+0x614>
 104439c:	3463c83a 	sub	r17,r6,r17
 10443a0:	4a07c83a 	sub	r3,r9,r8
 10443a4:	344d803a 	cmpltu	r6,r6,r17
 10443a8:	1991c83a 	sub	r8,r3,r6
 10443ac:	1021883a 	mov	r16,r2
 10443b0:	3825883a 	mov	r18,r7
 10443b4:	003f0a06 	br	1043fe0 <__alt_data_end+0xfffc3fe0>
 10443b8:	2023883a 	mov	r17,r4
 10443bc:	003f0d06 	br	1043ff4 <__alt_data_end+0xfffc3ff4>
 10443c0:	0081ffc4 	movi	r2,2047
 10443c4:	80bf3f1e 	bne	r16,r2,10440c4 <__alt_data_end+0xfffc40c4>
 10443c8:	003ec806 	br	1043eec <__alt_data_end+0xfffc3eec>
 10443cc:	0005883a 	mov	r2,zero
 10443d0:	003fb106 	br	1044298 <__alt_data_end+0xfffc4298>
 10443d4:	0007883a 	mov	r3,zero
 10443d8:	003fbc06 	br	10442cc <__alt_data_end+0xfffc42cc>
 10443dc:	4444b03a 	or	r2,r8,r17
 10443e0:	8000871e 	bne	r16,zero,1044600 <__adddf3+0x790>
 10443e4:	1000ba26 	beq	r2,zero,10446d0 <__adddf3+0x860>
 10443e8:	4984b03a 	or	r2,r9,r6
 10443ec:	103ebf26 	beq	r2,zero,1043eec <__alt_data_end+0xfffc3eec>
 10443f0:	8985883a 	add	r2,r17,r6
 10443f4:	4247883a 	add	r3,r8,r9
 10443f8:	1451803a 	cmpltu	r8,r2,r17
 10443fc:	40d1883a 	add	r8,r8,r3
 1044400:	40c0202c 	andhi	r3,r8,128
 1044404:	1023883a 	mov	r17,r2
 1044408:	183f1a26 	beq	r3,zero,1044074 <__alt_data_end+0xfffc4074>
 104440c:	00bfe034 	movhi	r2,65408
 1044410:	10bfffc4 	addi	r2,r2,-1
 1044414:	2021883a 	mov	r16,r4
 1044418:	4090703a 	and	r8,r8,r2
 104441c:	003eb306 	br	1043eec <__alt_data_end+0xfffc3eec>
 1044420:	4444b03a 	or	r2,r8,r17
 1044424:	8000291e 	bne	r16,zero,10444cc <__adddf3+0x65c>
 1044428:	10004b1e 	bne	r2,zero,1044558 <__adddf3+0x6e8>
 104442c:	4990b03a 	or	r8,r9,r6
 1044430:	40008b26 	beq	r8,zero,1044660 <__adddf3+0x7f0>
 1044434:	4811883a 	mov	r8,r9
 1044438:	3023883a 	mov	r17,r6
 104443c:	3825883a 	mov	r18,r7
 1044440:	003eaa06 	br	1043eec <__alt_data_end+0xfffc3eec>
 1044444:	1021883a 	mov	r16,r2
 1044448:	0011883a 	mov	r8,zero
 104444c:	0005883a 	mov	r2,zero
 1044450:	003f0f06 	br	1044090 <__alt_data_end+0xfffc4090>
 1044454:	217ff804 	addi	r5,r4,-32
 1044458:	00800804 	movi	r2,32
 104445c:	494ad83a 	srl	r5,r9,r5
 1044460:	20807d26 	beq	r4,r2,1044658 <__adddf3+0x7e8>
 1044464:	00801004 	movi	r2,64
 1044468:	1109c83a 	sub	r4,r2,r4
 104446c:	4912983a 	sll	r9,r9,r4
 1044470:	498cb03a 	or	r6,r9,r6
 1044474:	300cc03a 	cmpne	r6,r6,zero
 1044478:	298ab03a 	or	r5,r5,r6
 104447c:	0013883a 	mov	r9,zero
 1044480:	003f1506 	br	10440d8 <__alt_data_end+0xfffc40d8>
 1044484:	0101ffc4 	movi	r4,2047
 1044488:	113f9a1e 	bne	r2,r4,10442f4 <__alt_data_end+0xfffc42f4>
 104448c:	4811883a 	mov	r8,r9
 1044490:	3023883a 	mov	r17,r6
 1044494:	1021883a 	mov	r16,r2
 1044498:	3825883a 	mov	r18,r7
 104449c:	003e9306 	br	1043eec <__alt_data_end+0xfffc3eec>
 10444a0:	8000161e 	bne	r16,zero,10444fc <__adddf3+0x68c>
 10444a4:	444ab03a 	or	r5,r8,r17
 10444a8:	28005126 	beq	r5,zero,10445f0 <__adddf3+0x780>
 10444ac:	0108303a 	nor	r4,zero,r4
 10444b0:	20004d1e 	bne	r4,zero,10445e8 <__adddf3+0x778>
 10444b4:	89a3883a 	add	r17,r17,r6
 10444b8:	4253883a 	add	r9,r8,r9
 10444bc:	898d803a 	cmpltu	r6,r17,r6
 10444c0:	3251883a 	add	r8,r6,r9
 10444c4:	1021883a 	mov	r16,r2
 10444c8:	003f0806 	br	10440ec <__alt_data_end+0xfffc40ec>
 10444cc:	1000301e 	bne	r2,zero,1044590 <__adddf3+0x720>
 10444d0:	4984b03a 	or	r2,r9,r6
 10444d4:	10007126 	beq	r2,zero,104469c <__adddf3+0x82c>
 10444d8:	4811883a 	mov	r8,r9
 10444dc:	3023883a 	mov	r17,r6
 10444e0:	3825883a 	mov	r18,r7
 10444e4:	0401ffc4 	movi	r16,2047
 10444e8:	003e8006 	br	1043eec <__alt_data_end+0xfffc3eec>
 10444ec:	4462b03a 	or	r17,r8,r17
 10444f0:	8822c03a 	cmpne	r17,r17,zero
 10444f4:	0007883a 	mov	r3,zero
 10444f8:	003f8b06 	br	1044328 <__alt_data_end+0xfffc4328>
 10444fc:	0141ffc4 	movi	r5,2047
 1044500:	11403b26 	beq	r2,r5,10445f0 <__adddf3+0x780>
 1044504:	0109c83a 	sub	r4,zero,r4
 1044508:	42002034 	orhi	r8,r8,128
 104450c:	01400e04 	movi	r5,56
 1044510:	29006716 	blt	r5,r4,10446b0 <__adddf3+0x840>
 1044514:	014007c4 	movi	r5,31
 1044518:	29007016 	blt	r5,r4,10446dc <__adddf3+0x86c>
 104451c:	01400804 	movi	r5,32
 1044520:	290bc83a 	sub	r5,r5,r4
 1044524:	4154983a 	sll	r10,r8,r5
 1044528:	890ed83a 	srl	r7,r17,r4
 104452c:	894a983a 	sll	r5,r17,r5
 1044530:	4108d83a 	srl	r4,r8,r4
 1044534:	51e2b03a 	or	r17,r10,r7
 1044538:	280ac03a 	cmpne	r5,r5,zero
 104453c:	8962b03a 	or	r17,r17,r5
 1044540:	89a3883a 	add	r17,r17,r6
 1044544:	2253883a 	add	r9,r4,r9
 1044548:	898d803a 	cmpltu	r6,r17,r6
 104454c:	3251883a 	add	r8,r6,r9
 1044550:	1021883a 	mov	r16,r2
 1044554:	003ee506 	br	10440ec <__alt_data_end+0xfffc40ec>
 1044558:	4984b03a 	or	r2,r9,r6
 104455c:	103e6326 	beq	r2,zero,1043eec <__alt_data_end+0xfffc3eec>
 1044560:	8987c83a 	sub	r3,r17,r6
 1044564:	88c9803a 	cmpltu	r4,r17,r3
 1044568:	4245c83a 	sub	r2,r8,r9
 104456c:	1105c83a 	sub	r2,r2,r4
 1044570:	1100202c 	andhi	r4,r2,128
 1044574:	203ebb26 	beq	r4,zero,1044064 <__alt_data_end+0xfffc4064>
 1044578:	3463c83a 	sub	r17,r6,r17
 104457c:	4a07c83a 	sub	r3,r9,r8
 1044580:	344d803a 	cmpltu	r6,r6,r17
 1044584:	1991c83a 	sub	r8,r3,r6
 1044588:	3825883a 	mov	r18,r7
 104458c:	003e5706 	br	1043eec <__alt_data_end+0xfffc3eec>
 1044590:	4984b03a 	or	r2,r9,r6
 1044594:	10002e26 	beq	r2,zero,1044650 <__adddf3+0x7e0>
 1044598:	4004d0fa 	srli	r2,r8,3
 104459c:	8822d0fa 	srli	r17,r17,3
 10445a0:	4010977a 	slli	r8,r8,29
 10445a4:	10c0022c 	andhi	r3,r2,8
 10445a8:	4462b03a 	or	r17,r8,r17
 10445ac:	18000826 	beq	r3,zero,10445d0 <__adddf3+0x760>
 10445b0:	4808d0fa 	srli	r4,r9,3
 10445b4:	20c0022c 	andhi	r3,r4,8
 10445b8:	1800051e 	bne	r3,zero,10445d0 <__adddf3+0x760>
 10445bc:	300cd0fa 	srli	r6,r6,3
 10445c0:	4806977a 	slli	r3,r9,29
 10445c4:	2005883a 	mov	r2,r4
 10445c8:	3825883a 	mov	r18,r7
 10445cc:	19a2b03a 	or	r17,r3,r6
 10445d0:	8810d77a 	srli	r8,r17,29
 10445d4:	100490fa 	slli	r2,r2,3
 10445d8:	882290fa 	slli	r17,r17,3
 10445dc:	0401ffc4 	movi	r16,2047
 10445e0:	4090b03a 	or	r8,r8,r2
 10445e4:	003e4106 	br	1043eec <__alt_data_end+0xfffc3eec>
 10445e8:	0141ffc4 	movi	r5,2047
 10445ec:	117fc71e 	bne	r2,r5,104450c <__alt_data_end+0xfffc450c>
 10445f0:	4811883a 	mov	r8,r9
 10445f4:	3023883a 	mov	r17,r6
 10445f8:	1021883a 	mov	r16,r2
 10445fc:	003e3b06 	br	1043eec <__alt_data_end+0xfffc3eec>
 1044600:	10002f26 	beq	r2,zero,10446c0 <__adddf3+0x850>
 1044604:	4984b03a 	or	r2,r9,r6
 1044608:	10001126 	beq	r2,zero,1044650 <__adddf3+0x7e0>
 104460c:	4004d0fa 	srli	r2,r8,3
 1044610:	8822d0fa 	srli	r17,r17,3
 1044614:	4010977a 	slli	r8,r8,29
 1044618:	10c0022c 	andhi	r3,r2,8
 104461c:	4462b03a 	or	r17,r8,r17
 1044620:	183feb26 	beq	r3,zero,10445d0 <__alt_data_end+0xfffc45d0>
 1044624:	4808d0fa 	srli	r4,r9,3
 1044628:	20c0022c 	andhi	r3,r4,8
 104462c:	183fe81e 	bne	r3,zero,10445d0 <__alt_data_end+0xfffc45d0>
 1044630:	300cd0fa 	srli	r6,r6,3
 1044634:	4806977a 	slli	r3,r9,29
 1044638:	2005883a 	mov	r2,r4
 104463c:	19a2b03a 	or	r17,r3,r6
 1044640:	003fe306 	br	10445d0 <__alt_data_end+0xfffc45d0>
 1044644:	0011883a 	mov	r8,zero
 1044648:	0005883a 	mov	r2,zero
 104464c:	003e3f06 	br	1043f4c <__alt_data_end+0xfffc3f4c>
 1044650:	0401ffc4 	movi	r16,2047
 1044654:	003e2506 	br	1043eec <__alt_data_end+0xfffc3eec>
 1044658:	0013883a 	mov	r9,zero
 104465c:	003f8406 	br	1044470 <__alt_data_end+0xfffc4470>
 1044660:	0005883a 	mov	r2,zero
 1044664:	0007883a 	mov	r3,zero
 1044668:	003e8906 	br	1044090 <__alt_data_end+0xfffc4090>
 104466c:	197ff804 	addi	r5,r3,-32
 1044670:	01000804 	movi	r4,32
 1044674:	414ad83a 	srl	r5,r8,r5
 1044678:	19002426 	beq	r3,r4,104470c <__adddf3+0x89c>
 104467c:	01001004 	movi	r4,64
 1044680:	20c7c83a 	sub	r3,r4,r3
 1044684:	40c6983a 	sll	r3,r8,r3
 1044688:	1c46b03a 	or	r3,r3,r17
 104468c:	1806c03a 	cmpne	r3,r3,zero
 1044690:	28e2b03a 	or	r17,r5,r3
 1044694:	0007883a 	mov	r3,zero
 1044698:	003f2306 	br	1044328 <__alt_data_end+0xfffc4328>
 104469c:	0007883a 	mov	r3,zero
 10446a0:	5811883a 	mov	r8,r11
 10446a4:	00bfffc4 	movi	r2,-1
 10446a8:	0401ffc4 	movi	r16,2047
 10446ac:	003e7806 	br	1044090 <__alt_data_end+0xfffc4090>
 10446b0:	4462b03a 	or	r17,r8,r17
 10446b4:	8822c03a 	cmpne	r17,r17,zero
 10446b8:	0009883a 	mov	r4,zero
 10446bc:	003fa006 	br	1044540 <__alt_data_end+0xfffc4540>
 10446c0:	4811883a 	mov	r8,r9
 10446c4:	3023883a 	mov	r17,r6
 10446c8:	0401ffc4 	movi	r16,2047
 10446cc:	003e0706 	br	1043eec <__alt_data_end+0xfffc3eec>
 10446d0:	4811883a 	mov	r8,r9
 10446d4:	3023883a 	mov	r17,r6
 10446d8:	003e0406 	br	1043eec <__alt_data_end+0xfffc3eec>
 10446dc:	21fff804 	addi	r7,r4,-32
 10446e0:	01400804 	movi	r5,32
 10446e4:	41ced83a 	srl	r7,r8,r7
 10446e8:	21400a26 	beq	r4,r5,1044714 <__adddf3+0x8a4>
 10446ec:	01401004 	movi	r5,64
 10446f0:	2909c83a 	sub	r4,r5,r4
 10446f4:	4108983a 	sll	r4,r8,r4
 10446f8:	2448b03a 	or	r4,r4,r17
 10446fc:	2008c03a 	cmpne	r4,r4,zero
 1044700:	3922b03a 	or	r17,r7,r4
 1044704:	0009883a 	mov	r4,zero
 1044708:	003f8d06 	br	1044540 <__alt_data_end+0xfffc4540>
 104470c:	0007883a 	mov	r3,zero
 1044710:	003fdd06 	br	1044688 <__alt_data_end+0xfffc4688>
 1044714:	0009883a 	mov	r4,zero
 1044718:	003ff706 	br	10446f8 <__alt_data_end+0xfffc46f8>

0104471c <__eqdf2>:
 104471c:	2804d53a 	srli	r2,r5,20
 1044720:	3806d53a 	srli	r3,r7,20
 1044724:	02000434 	movhi	r8,16
 1044728:	423fffc4 	addi	r8,r8,-1
 104472c:	1081ffcc 	andi	r2,r2,2047
 1044730:	0281ffc4 	movi	r10,2047
 1044734:	2a12703a 	and	r9,r5,r8
 1044738:	18c1ffcc 	andi	r3,r3,2047
 104473c:	3a10703a 	and	r8,r7,r8
 1044740:	280ad7fa 	srli	r5,r5,31
 1044744:	380ed7fa 	srli	r7,r7,31
 1044748:	12801026 	beq	r2,r10,104478c <__eqdf2+0x70>
 104474c:	0281ffc4 	movi	r10,2047
 1044750:	1a800a26 	beq	r3,r10,104477c <__eqdf2+0x60>
 1044754:	10c00226 	beq	r2,r3,1044760 <__eqdf2+0x44>
 1044758:	00800044 	movi	r2,1
 104475c:	f800283a 	ret
 1044760:	4a3ffd1e 	bne	r9,r8,1044758 <__alt_data_end+0xfffc4758>
 1044764:	21bffc1e 	bne	r4,r6,1044758 <__alt_data_end+0xfffc4758>
 1044768:	29c00c26 	beq	r5,r7,104479c <__eqdf2+0x80>
 104476c:	103ffa1e 	bne	r2,zero,1044758 <__alt_data_end+0xfffc4758>
 1044770:	2244b03a 	or	r2,r4,r9
 1044774:	1004c03a 	cmpne	r2,r2,zero
 1044778:	f800283a 	ret
 104477c:	3214b03a 	or	r10,r6,r8
 1044780:	503ff426 	beq	r10,zero,1044754 <__alt_data_end+0xfffc4754>
 1044784:	00800044 	movi	r2,1
 1044788:	f800283a 	ret
 104478c:	2254b03a 	or	r10,r4,r9
 1044790:	503fee26 	beq	r10,zero,104474c <__alt_data_end+0xfffc474c>
 1044794:	00800044 	movi	r2,1
 1044798:	f800283a 	ret
 104479c:	0005883a 	mov	r2,zero
 10447a0:	f800283a 	ret

010447a4 <__gedf2>:
 10447a4:	2804d53a 	srli	r2,r5,20
 10447a8:	3806d53a 	srli	r3,r7,20
 10447ac:	02000434 	movhi	r8,16
 10447b0:	423fffc4 	addi	r8,r8,-1
 10447b4:	1081ffcc 	andi	r2,r2,2047
 10447b8:	0241ffc4 	movi	r9,2047
 10447bc:	2a14703a 	and	r10,r5,r8
 10447c0:	18c1ffcc 	andi	r3,r3,2047
 10447c4:	3a10703a 	and	r8,r7,r8
 10447c8:	280ad7fa 	srli	r5,r5,31
 10447cc:	380ed7fa 	srli	r7,r7,31
 10447d0:	12401d26 	beq	r2,r9,1044848 <__gedf2+0xa4>
 10447d4:	0241ffc4 	movi	r9,2047
 10447d8:	1a401226 	beq	r3,r9,1044824 <__gedf2+0x80>
 10447dc:	1000081e 	bne	r2,zero,1044800 <__gedf2+0x5c>
 10447e0:	2296b03a 	or	r11,r4,r10
 10447e4:	5813003a 	cmpeq	r9,r11,zero
 10447e8:	1800091e 	bne	r3,zero,1044810 <__gedf2+0x6c>
 10447ec:	3218b03a 	or	r12,r6,r8
 10447f0:	6000071e 	bne	r12,zero,1044810 <__gedf2+0x6c>
 10447f4:	0005883a 	mov	r2,zero
 10447f8:	5800101e 	bne	r11,zero,104483c <__gedf2+0x98>
 10447fc:	f800283a 	ret
 1044800:	18000c1e 	bne	r3,zero,1044834 <__gedf2+0x90>
 1044804:	3212b03a 	or	r9,r6,r8
 1044808:	48000c26 	beq	r9,zero,104483c <__gedf2+0x98>
 104480c:	0013883a 	mov	r9,zero
 1044810:	39c03fcc 	andi	r7,r7,255
 1044814:	48000826 	beq	r9,zero,1044838 <__gedf2+0x94>
 1044818:	38000926 	beq	r7,zero,1044840 <__gedf2+0x9c>
 104481c:	00800044 	movi	r2,1
 1044820:	f800283a 	ret
 1044824:	3212b03a 	or	r9,r6,r8
 1044828:	483fec26 	beq	r9,zero,10447dc <__alt_data_end+0xfffc47dc>
 104482c:	00bfff84 	movi	r2,-2
 1044830:	f800283a 	ret
 1044834:	39c03fcc 	andi	r7,r7,255
 1044838:	29c00626 	beq	r5,r7,1044854 <__gedf2+0xb0>
 104483c:	283ff726 	beq	r5,zero,104481c <__alt_data_end+0xfffc481c>
 1044840:	00bfffc4 	movi	r2,-1
 1044844:	f800283a 	ret
 1044848:	2292b03a 	or	r9,r4,r10
 104484c:	483fe126 	beq	r9,zero,10447d4 <__alt_data_end+0xfffc47d4>
 1044850:	003ff606 	br	104482c <__alt_data_end+0xfffc482c>
 1044854:	18bff916 	blt	r3,r2,104483c <__alt_data_end+0xfffc483c>
 1044858:	10c00316 	blt	r2,r3,1044868 <__gedf2+0xc4>
 104485c:	42bff736 	bltu	r8,r10,104483c <__alt_data_end+0xfffc483c>
 1044860:	52000326 	beq	r10,r8,1044870 <__gedf2+0xcc>
 1044864:	5200042e 	bgeu	r10,r8,1044878 <__gedf2+0xd4>
 1044868:	283fec1e 	bne	r5,zero,104481c <__alt_data_end+0xfffc481c>
 104486c:	003ff406 	br	1044840 <__alt_data_end+0xfffc4840>
 1044870:	313ff236 	bltu	r6,r4,104483c <__alt_data_end+0xfffc483c>
 1044874:	21bffc36 	bltu	r4,r6,1044868 <__alt_data_end+0xfffc4868>
 1044878:	0005883a 	mov	r2,zero
 104487c:	f800283a 	ret

01044880 <__muldf3>:
 1044880:	defff304 	addi	sp,sp,-52
 1044884:	2804d53a 	srli	r2,r5,20
 1044888:	dd800915 	stw	r22,36(sp)
 104488c:	282cd7fa 	srli	r22,r5,31
 1044890:	dc000315 	stw	r16,12(sp)
 1044894:	04000434 	movhi	r16,16
 1044898:	dd400815 	stw	r21,32(sp)
 104489c:	dc800515 	stw	r18,20(sp)
 10448a0:	843fffc4 	addi	r16,r16,-1
 10448a4:	dfc00c15 	stw	ra,48(sp)
 10448a8:	df000b15 	stw	fp,44(sp)
 10448ac:	ddc00a15 	stw	r23,40(sp)
 10448b0:	dd000715 	stw	r20,28(sp)
 10448b4:	dcc00615 	stw	r19,24(sp)
 10448b8:	dc400415 	stw	r17,16(sp)
 10448bc:	1481ffcc 	andi	r18,r2,2047
 10448c0:	2c20703a 	and	r16,r5,r16
 10448c4:	b02b883a 	mov	r21,r22
 10448c8:	b2403fcc 	andi	r9,r22,255
 10448cc:	90006026 	beq	r18,zero,1044a50 <__muldf3+0x1d0>
 10448d0:	0081ffc4 	movi	r2,2047
 10448d4:	2029883a 	mov	r20,r4
 10448d8:	90803626 	beq	r18,r2,10449b4 <__muldf3+0x134>
 10448dc:	80800434 	orhi	r2,r16,16
 10448e0:	100490fa 	slli	r2,r2,3
 10448e4:	2020d77a 	srli	r16,r4,29
 10448e8:	202890fa 	slli	r20,r4,3
 10448ec:	94bf0044 	addi	r18,r18,-1023
 10448f0:	80a0b03a 	or	r16,r16,r2
 10448f4:	0027883a 	mov	r19,zero
 10448f8:	0039883a 	mov	fp,zero
 10448fc:	3804d53a 	srli	r2,r7,20
 1044900:	382ed7fa 	srli	r23,r7,31
 1044904:	04400434 	movhi	r17,16
 1044908:	8c7fffc4 	addi	r17,r17,-1
 104490c:	1081ffcc 	andi	r2,r2,2047
 1044910:	3011883a 	mov	r8,r6
 1044914:	3c62703a 	and	r17,r7,r17
 1044918:	ba803fcc 	andi	r10,r23,255
 104491c:	10006d26 	beq	r2,zero,1044ad4 <__muldf3+0x254>
 1044920:	00c1ffc4 	movi	r3,2047
 1044924:	10c06526 	beq	r2,r3,1044abc <__muldf3+0x23c>
 1044928:	88c00434 	orhi	r3,r17,16
 104492c:	180690fa 	slli	r3,r3,3
 1044930:	3022d77a 	srli	r17,r6,29
 1044934:	301090fa 	slli	r8,r6,3
 1044938:	10bf0044 	addi	r2,r2,-1023
 104493c:	88e2b03a 	or	r17,r17,r3
 1044940:	000b883a 	mov	r5,zero
 1044944:	9085883a 	add	r2,r18,r2
 1044948:	2cc8b03a 	or	r4,r5,r19
 104494c:	00c003c4 	movi	r3,15
 1044950:	bdacf03a 	xor	r22,r23,r22
 1044954:	12c00044 	addi	r11,r2,1
 1044958:	19009936 	bltu	r3,r4,1044bc0 <__muldf3+0x340>
 104495c:	200890ba 	slli	r4,r4,2
 1044960:	00c04134 	movhi	r3,260
 1044964:	18d25d04 	addi	r3,r3,18804
 1044968:	20c9883a 	add	r4,r4,r3
 104496c:	20c00017 	ldw	r3,0(r4)
 1044970:	1800683a 	jmp	r3
 1044974:	01044bc0 	call	1044bc <__alt_mem_onchip_memory2-0xf3bb44>
 1044978:	010449d4 	movui	r4,4391
 104497c:	010449d4 	movui	r4,4391
 1044980:	010449d0 	cmplti	r4,zero,4391
 1044984:	01044b9c 	xori	r4,zero,4398
 1044988:	01044b9c 	xori	r4,zero,4398
 104498c:	01044b84 	movi	r4,4398
 1044990:	010449d0 	cmplti	r4,zero,4391
 1044994:	01044b9c 	xori	r4,zero,4398
 1044998:	01044b84 	movi	r4,4398
 104499c:	01044b9c 	xori	r4,zero,4398
 10449a0:	010449d0 	cmplti	r4,zero,4391
 10449a4:	01044bac 	andhi	r4,zero,4398
 10449a8:	01044bac 	andhi	r4,zero,4398
 10449ac:	01044bac 	andhi	r4,zero,4398
 10449b0:	01044dc8 	cmpgei	r4,zero,4407
 10449b4:	2404b03a 	or	r2,r4,r16
 10449b8:	10006f1e 	bne	r2,zero,1044b78 <__muldf3+0x2f8>
 10449bc:	04c00204 	movi	r19,8
 10449c0:	0021883a 	mov	r16,zero
 10449c4:	0029883a 	mov	r20,zero
 10449c8:	07000084 	movi	fp,2
 10449cc:	003fcb06 	br	10448fc <__alt_data_end+0xfffc48fc>
 10449d0:	502d883a 	mov	r22,r10
 10449d4:	00800084 	movi	r2,2
 10449d8:	28805726 	beq	r5,r2,1044b38 <__muldf3+0x2b8>
 10449dc:	008000c4 	movi	r2,3
 10449e0:	28816626 	beq	r5,r2,1044f7c <__muldf3+0x6fc>
 10449e4:	00800044 	movi	r2,1
 10449e8:	2881411e 	bne	r5,r2,1044ef0 <__muldf3+0x670>
 10449ec:	b02b883a 	mov	r21,r22
 10449f0:	0005883a 	mov	r2,zero
 10449f4:	000b883a 	mov	r5,zero
 10449f8:	0029883a 	mov	r20,zero
 10449fc:	1004953a 	slli	r2,r2,20
 1044a00:	a8c03fcc 	andi	r3,r21,255
 1044a04:	04400434 	movhi	r17,16
 1044a08:	8c7fffc4 	addi	r17,r17,-1
 1044a0c:	180697fa 	slli	r3,r3,31
 1044a10:	2c4a703a 	and	r5,r5,r17
 1044a14:	288ab03a 	or	r5,r5,r2
 1044a18:	28c6b03a 	or	r3,r5,r3
 1044a1c:	a005883a 	mov	r2,r20
 1044a20:	dfc00c17 	ldw	ra,48(sp)
 1044a24:	df000b17 	ldw	fp,44(sp)
 1044a28:	ddc00a17 	ldw	r23,40(sp)
 1044a2c:	dd800917 	ldw	r22,36(sp)
 1044a30:	dd400817 	ldw	r21,32(sp)
 1044a34:	dd000717 	ldw	r20,28(sp)
 1044a38:	dcc00617 	ldw	r19,24(sp)
 1044a3c:	dc800517 	ldw	r18,20(sp)
 1044a40:	dc400417 	ldw	r17,16(sp)
 1044a44:	dc000317 	ldw	r16,12(sp)
 1044a48:	dec00d04 	addi	sp,sp,52
 1044a4c:	f800283a 	ret
 1044a50:	2404b03a 	or	r2,r4,r16
 1044a54:	2027883a 	mov	r19,r4
 1044a58:	10004226 	beq	r2,zero,1044b64 <__muldf3+0x2e4>
 1044a5c:	8000fc26 	beq	r16,zero,1044e50 <__muldf3+0x5d0>
 1044a60:	8009883a 	mov	r4,r16
 1044a64:	d9800215 	stw	r6,8(sp)
 1044a68:	d9c00015 	stw	r7,0(sp)
 1044a6c:	da400115 	stw	r9,4(sp)
 1044a70:	10459f00 	call	10459f0 <__clzsi2>
 1044a74:	d9800217 	ldw	r6,8(sp)
 1044a78:	d9c00017 	ldw	r7,0(sp)
 1044a7c:	da400117 	ldw	r9,4(sp)
 1044a80:	113ffd44 	addi	r4,r2,-11
 1044a84:	00c00704 	movi	r3,28
 1044a88:	1900ed16 	blt	r3,r4,1044e40 <__muldf3+0x5c0>
 1044a8c:	00c00744 	movi	r3,29
 1044a90:	147ffe04 	addi	r17,r2,-8
 1044a94:	1907c83a 	sub	r3,r3,r4
 1044a98:	8460983a 	sll	r16,r16,r17
 1044a9c:	98c6d83a 	srl	r3,r19,r3
 1044aa0:	9c68983a 	sll	r20,r19,r17
 1044aa4:	1c20b03a 	or	r16,r3,r16
 1044aa8:	1080fcc4 	addi	r2,r2,1011
 1044aac:	00a5c83a 	sub	r18,zero,r2
 1044ab0:	0027883a 	mov	r19,zero
 1044ab4:	0039883a 	mov	fp,zero
 1044ab8:	003f9006 	br	10448fc <__alt_data_end+0xfffc48fc>
 1044abc:	3446b03a 	or	r3,r6,r17
 1044ac0:	1800261e 	bne	r3,zero,1044b5c <__muldf3+0x2dc>
 1044ac4:	0023883a 	mov	r17,zero
 1044ac8:	0011883a 	mov	r8,zero
 1044acc:	01400084 	movi	r5,2
 1044ad0:	003f9c06 	br	1044944 <__alt_data_end+0xfffc4944>
 1044ad4:	3446b03a 	or	r3,r6,r17
 1044ad8:	18001c26 	beq	r3,zero,1044b4c <__muldf3+0x2cc>
 1044adc:	8800ce26 	beq	r17,zero,1044e18 <__muldf3+0x598>
 1044ae0:	8809883a 	mov	r4,r17
 1044ae4:	d9800215 	stw	r6,8(sp)
 1044ae8:	da400115 	stw	r9,4(sp)
 1044aec:	da800015 	stw	r10,0(sp)
 1044af0:	10459f00 	call	10459f0 <__clzsi2>
 1044af4:	d9800217 	ldw	r6,8(sp)
 1044af8:	da400117 	ldw	r9,4(sp)
 1044afc:	da800017 	ldw	r10,0(sp)
 1044b00:	113ffd44 	addi	r4,r2,-11
 1044b04:	00c00704 	movi	r3,28
 1044b08:	1900bf16 	blt	r3,r4,1044e08 <__muldf3+0x588>
 1044b0c:	00c00744 	movi	r3,29
 1044b10:	123ffe04 	addi	r8,r2,-8
 1044b14:	1907c83a 	sub	r3,r3,r4
 1044b18:	8a22983a 	sll	r17,r17,r8
 1044b1c:	30c6d83a 	srl	r3,r6,r3
 1044b20:	3210983a 	sll	r8,r6,r8
 1044b24:	1c62b03a 	or	r17,r3,r17
 1044b28:	1080fcc4 	addi	r2,r2,1011
 1044b2c:	0085c83a 	sub	r2,zero,r2
 1044b30:	000b883a 	mov	r5,zero
 1044b34:	003f8306 	br	1044944 <__alt_data_end+0xfffc4944>
 1044b38:	b02b883a 	mov	r21,r22
 1044b3c:	0081ffc4 	movi	r2,2047
 1044b40:	000b883a 	mov	r5,zero
 1044b44:	0029883a 	mov	r20,zero
 1044b48:	003fac06 	br	10449fc <__alt_data_end+0xfffc49fc>
 1044b4c:	0023883a 	mov	r17,zero
 1044b50:	0011883a 	mov	r8,zero
 1044b54:	01400044 	movi	r5,1
 1044b58:	003f7a06 	br	1044944 <__alt_data_end+0xfffc4944>
 1044b5c:	014000c4 	movi	r5,3
 1044b60:	003f7806 	br	1044944 <__alt_data_end+0xfffc4944>
 1044b64:	04c00104 	movi	r19,4
 1044b68:	0021883a 	mov	r16,zero
 1044b6c:	0029883a 	mov	r20,zero
 1044b70:	07000044 	movi	fp,1
 1044b74:	003f6106 	br	10448fc <__alt_data_end+0xfffc48fc>
 1044b78:	04c00304 	movi	r19,12
 1044b7c:	070000c4 	movi	fp,3
 1044b80:	003f5e06 	br	10448fc <__alt_data_end+0xfffc48fc>
 1044b84:	01400434 	movhi	r5,16
 1044b88:	002b883a 	mov	r21,zero
 1044b8c:	297fffc4 	addi	r5,r5,-1
 1044b90:	053fffc4 	movi	r20,-1
 1044b94:	0081ffc4 	movi	r2,2047
 1044b98:	003f9806 	br	10449fc <__alt_data_end+0xfffc49fc>
 1044b9c:	8023883a 	mov	r17,r16
 1044ba0:	a011883a 	mov	r8,r20
 1044ba4:	e00b883a 	mov	r5,fp
 1044ba8:	003f8a06 	br	10449d4 <__alt_data_end+0xfffc49d4>
 1044bac:	8023883a 	mov	r17,r16
 1044bb0:	a011883a 	mov	r8,r20
 1044bb4:	482d883a 	mov	r22,r9
 1044bb8:	e00b883a 	mov	r5,fp
 1044bbc:	003f8506 	br	10449d4 <__alt_data_end+0xfffc49d4>
 1044bc0:	a00ad43a 	srli	r5,r20,16
 1044bc4:	401ad43a 	srli	r13,r8,16
 1044bc8:	a53fffcc 	andi	r20,r20,65535
 1044bcc:	423fffcc 	andi	r8,r8,65535
 1044bd0:	4519383a 	mul	r12,r8,r20
 1044bd4:	4147383a 	mul	r3,r8,r5
 1044bd8:	6d09383a 	mul	r4,r13,r20
 1044bdc:	600cd43a 	srli	r6,r12,16
 1044be0:	2b5d383a 	mul	r14,r5,r13
 1044be4:	20c9883a 	add	r4,r4,r3
 1044be8:	310d883a 	add	r6,r6,r4
 1044bec:	30c0022e 	bgeu	r6,r3,1044bf8 <__muldf3+0x378>
 1044bf0:	00c00074 	movhi	r3,1
 1044bf4:	70dd883a 	add	r14,r14,r3
 1044bf8:	8826d43a 	srli	r19,r17,16
 1044bfc:	8bffffcc 	andi	r15,r17,65535
 1044c00:	7d23383a 	mul	r17,r15,r20
 1044c04:	7949383a 	mul	r4,r15,r5
 1044c08:	9d29383a 	mul	r20,r19,r20
 1044c0c:	8814d43a 	srli	r10,r17,16
 1044c10:	3012943a 	slli	r9,r6,16
 1044c14:	a129883a 	add	r20,r20,r4
 1044c18:	633fffcc 	andi	r12,r12,65535
 1044c1c:	5515883a 	add	r10,r10,r20
 1044c20:	3006d43a 	srli	r3,r6,16
 1044c24:	4b13883a 	add	r9,r9,r12
 1044c28:	2ccb383a 	mul	r5,r5,r19
 1044c2c:	5100022e 	bgeu	r10,r4,1044c38 <__muldf3+0x3b8>
 1044c30:	01000074 	movhi	r4,1
 1044c34:	290b883a 	add	r5,r5,r4
 1044c38:	802ad43a 	srli	r21,r16,16
 1044c3c:	843fffcc 	andi	r16,r16,65535
 1044c40:	440d383a 	mul	r6,r8,r16
 1044c44:	4565383a 	mul	r18,r8,r21
 1044c48:	8349383a 	mul	r4,r16,r13
 1044c4c:	500e943a 	slli	r7,r10,16
 1044c50:	3010d43a 	srli	r8,r6,16
 1044c54:	5028d43a 	srli	r20,r10,16
 1044c58:	2489883a 	add	r4,r4,r18
 1044c5c:	8abfffcc 	andi	r10,r17,65535
 1044c60:	3a95883a 	add	r10,r7,r10
 1044c64:	4119883a 	add	r12,r8,r4
 1044c68:	a169883a 	add	r20,r20,r5
 1044c6c:	1a87883a 	add	r3,r3,r10
 1044c70:	6d5b383a 	mul	r13,r13,r21
 1044c74:	6480022e 	bgeu	r12,r18,1044c80 <__muldf3+0x400>
 1044c78:	01000074 	movhi	r4,1
 1044c7c:	691b883a 	add	r13,r13,r4
 1044c80:	7c25383a 	mul	r18,r15,r16
 1044c84:	7d4b383a 	mul	r5,r15,r21
 1044c88:	84cf383a 	mul	r7,r16,r19
 1044c8c:	901ed43a 	srli	r15,r18,16
 1044c90:	6008d43a 	srli	r4,r12,16
 1044c94:	6010943a 	slli	r8,r12,16
 1044c98:	394f883a 	add	r7,r7,r5
 1044c9c:	333fffcc 	andi	r12,r6,65535
 1044ca0:	79df883a 	add	r15,r15,r7
 1044ca4:	235b883a 	add	r13,r4,r13
 1044ca8:	9d63383a 	mul	r17,r19,r21
 1044cac:	4309883a 	add	r4,r8,r12
 1044cb0:	7940022e 	bgeu	r15,r5,1044cbc <__muldf3+0x43c>
 1044cb4:	01400074 	movhi	r5,1
 1044cb8:	8963883a 	add	r17,r17,r5
 1044cbc:	780a943a 	slli	r5,r15,16
 1044cc0:	91bfffcc 	andi	r6,r18,65535
 1044cc4:	70c7883a 	add	r3,r14,r3
 1044cc8:	298d883a 	add	r6,r5,r6
 1044ccc:	1a8f803a 	cmpltu	r7,r3,r10
 1044cd0:	350b883a 	add	r5,r6,r20
 1044cd4:	20c7883a 	add	r3,r4,r3
 1044cd8:	3955883a 	add	r10,r7,r5
 1044cdc:	1909803a 	cmpltu	r4,r3,r4
 1044ce0:	6a91883a 	add	r8,r13,r10
 1044ce4:	780cd43a 	srli	r6,r15,16
 1044ce8:	2219883a 	add	r12,r4,r8
 1044cec:	2d0b803a 	cmpltu	r5,r5,r20
 1044cf0:	51cf803a 	cmpltu	r7,r10,r7
 1044cf4:	29ceb03a 	or	r7,r5,r7
 1044cf8:	4351803a 	cmpltu	r8,r8,r13
 1044cfc:	610b803a 	cmpltu	r5,r12,r4
 1044d00:	4148b03a 	or	r4,r8,r5
 1044d04:	398f883a 	add	r7,r7,r6
 1044d08:	3909883a 	add	r4,r7,r4
 1044d0c:	1810927a 	slli	r8,r3,9
 1044d10:	2449883a 	add	r4,r4,r17
 1044d14:	2008927a 	slli	r4,r4,9
 1044d18:	6022d5fa 	srli	r17,r12,23
 1044d1c:	1806d5fa 	srli	r3,r3,23
 1044d20:	4252b03a 	or	r9,r8,r9
 1044d24:	600a927a 	slli	r5,r12,9
 1044d28:	4810c03a 	cmpne	r8,r9,zero
 1044d2c:	2462b03a 	or	r17,r4,r17
 1044d30:	40c6b03a 	or	r3,r8,r3
 1044d34:	8900402c 	andhi	r4,r17,256
 1044d38:	1950b03a 	or	r8,r3,r5
 1044d3c:	20000726 	beq	r4,zero,1044d5c <__muldf3+0x4dc>
 1044d40:	4006d07a 	srli	r3,r8,1
 1044d44:	880497fa 	slli	r2,r17,31
 1044d48:	4200004c 	andi	r8,r8,1
 1044d4c:	8822d07a 	srli	r17,r17,1
 1044d50:	1a10b03a 	or	r8,r3,r8
 1044d54:	1210b03a 	or	r8,r2,r8
 1044d58:	5805883a 	mov	r2,r11
 1044d5c:	1140ffc4 	addi	r5,r2,1023
 1044d60:	0140440e 	bge	zero,r5,1044e74 <__muldf3+0x5f4>
 1044d64:	40c001cc 	andi	r3,r8,7
 1044d68:	18000726 	beq	r3,zero,1044d88 <__muldf3+0x508>
 1044d6c:	40c003cc 	andi	r3,r8,15
 1044d70:	01000104 	movi	r4,4
 1044d74:	19000426 	beq	r3,r4,1044d88 <__muldf3+0x508>
 1044d78:	4107883a 	add	r3,r8,r4
 1044d7c:	1a11803a 	cmpltu	r8,r3,r8
 1044d80:	8a23883a 	add	r17,r17,r8
 1044d84:	1811883a 	mov	r8,r3
 1044d88:	88c0402c 	andhi	r3,r17,256
 1044d8c:	18000426 	beq	r3,zero,1044da0 <__muldf3+0x520>
 1044d90:	11410004 	addi	r5,r2,1024
 1044d94:	00bfc034 	movhi	r2,65280
 1044d98:	10bfffc4 	addi	r2,r2,-1
 1044d9c:	88a2703a 	and	r17,r17,r2
 1044da0:	0081ff84 	movi	r2,2046
 1044da4:	117f6416 	blt	r2,r5,1044b38 <__alt_data_end+0xfffc4b38>
 1044da8:	8828977a 	slli	r20,r17,29
 1044dac:	4010d0fa 	srli	r8,r8,3
 1044db0:	8822927a 	slli	r17,r17,9
 1044db4:	2881ffcc 	andi	r2,r5,2047
 1044db8:	a228b03a 	or	r20,r20,r8
 1044dbc:	880ad33a 	srli	r5,r17,12
 1044dc0:	b02b883a 	mov	r21,r22
 1044dc4:	003f0d06 	br	10449fc <__alt_data_end+0xfffc49fc>
 1044dc8:	8080022c 	andhi	r2,r16,8
 1044dcc:	10000926 	beq	r2,zero,1044df4 <__muldf3+0x574>
 1044dd0:	8880022c 	andhi	r2,r17,8
 1044dd4:	1000071e 	bne	r2,zero,1044df4 <__muldf3+0x574>
 1044dd8:	00800434 	movhi	r2,16
 1044ddc:	89400234 	orhi	r5,r17,8
 1044de0:	10bfffc4 	addi	r2,r2,-1
 1044de4:	b82b883a 	mov	r21,r23
 1044de8:	288a703a 	and	r5,r5,r2
 1044dec:	4029883a 	mov	r20,r8
 1044df0:	003f6806 	br	1044b94 <__alt_data_end+0xfffc4b94>
 1044df4:	00800434 	movhi	r2,16
 1044df8:	81400234 	orhi	r5,r16,8
 1044dfc:	10bfffc4 	addi	r2,r2,-1
 1044e00:	288a703a 	and	r5,r5,r2
 1044e04:	003f6306 	br	1044b94 <__alt_data_end+0xfffc4b94>
 1044e08:	147ff604 	addi	r17,r2,-40
 1044e0c:	3462983a 	sll	r17,r6,r17
 1044e10:	0011883a 	mov	r8,zero
 1044e14:	003f4406 	br	1044b28 <__alt_data_end+0xfffc4b28>
 1044e18:	3009883a 	mov	r4,r6
 1044e1c:	d9800215 	stw	r6,8(sp)
 1044e20:	da400115 	stw	r9,4(sp)
 1044e24:	da800015 	stw	r10,0(sp)
 1044e28:	10459f00 	call	10459f0 <__clzsi2>
 1044e2c:	10800804 	addi	r2,r2,32
 1044e30:	da800017 	ldw	r10,0(sp)
 1044e34:	da400117 	ldw	r9,4(sp)
 1044e38:	d9800217 	ldw	r6,8(sp)
 1044e3c:	003f3006 	br	1044b00 <__alt_data_end+0xfffc4b00>
 1044e40:	143ff604 	addi	r16,r2,-40
 1044e44:	9c20983a 	sll	r16,r19,r16
 1044e48:	0029883a 	mov	r20,zero
 1044e4c:	003f1606 	br	1044aa8 <__alt_data_end+0xfffc4aa8>
 1044e50:	d9800215 	stw	r6,8(sp)
 1044e54:	d9c00015 	stw	r7,0(sp)
 1044e58:	da400115 	stw	r9,4(sp)
 1044e5c:	10459f00 	call	10459f0 <__clzsi2>
 1044e60:	10800804 	addi	r2,r2,32
 1044e64:	da400117 	ldw	r9,4(sp)
 1044e68:	d9c00017 	ldw	r7,0(sp)
 1044e6c:	d9800217 	ldw	r6,8(sp)
 1044e70:	003f0306 	br	1044a80 <__alt_data_end+0xfffc4a80>
 1044e74:	00c00044 	movi	r3,1
 1044e78:	1947c83a 	sub	r3,r3,r5
 1044e7c:	00800e04 	movi	r2,56
 1044e80:	10feda16 	blt	r2,r3,10449ec <__alt_data_end+0xfffc49ec>
 1044e84:	008007c4 	movi	r2,31
 1044e88:	10c01b16 	blt	r2,r3,1044ef8 <__muldf3+0x678>
 1044e8c:	00800804 	movi	r2,32
 1044e90:	10c5c83a 	sub	r2,r2,r3
 1044e94:	888a983a 	sll	r5,r17,r2
 1044e98:	40c8d83a 	srl	r4,r8,r3
 1044e9c:	4084983a 	sll	r2,r8,r2
 1044ea0:	88e2d83a 	srl	r17,r17,r3
 1044ea4:	2906b03a 	or	r3,r5,r4
 1044ea8:	1004c03a 	cmpne	r2,r2,zero
 1044eac:	1886b03a 	or	r3,r3,r2
 1044eb0:	188001cc 	andi	r2,r3,7
